(dp0
S'class_sl'
p1
(dp2
S'tongue'
p3
(I16
I25
tp4
sS'left_palm'
p5
(I8
I16
tp6
sS'gut'
p7
(I0
I8
tp8
ssS'class_hierarchy'
p9
(dp10
g3
(lp11
S'tongue_subcl'
p12
asg5
(lp13
S'left_palm_subcl'
p14
asg7
(lp15
S'gut_subcl'
p16
assS'feats'
p17
(dp18
S'k__Bacteria.p__Firmicutes.c__Clostridia.o__Clostridiales.f__Veillonellaceae.g__Schwartzia'
p19
(lp20
F0.0
aF0.0
aF0.0
aF0.0
aF0.0
aF0.0
aF0.0
aF0.0
aF0.0
aF0.0
aF0.0
aF0.0
aF6603.081438004402
aF0.0
aF0.0
aF0.0
aF0.0
aF0.0
aF0.0
aF0.0
aF0.0
aF0.0
aF0.0
aF0.0
aF0.0
asS'k__Bacteria.p__Fusobacteria.c__Fusobacteriia.o__Fusobacteriales.f__Leptotrichiaceae.g__Leptotrichia'
p21
(lp22
F0.0
aF0.0
aF0.0
aF0.0
aF0.0
aF0.0
aF0.0
aF0.0
aF0.0
aF0.0
aF4103.967168262653
aF1271.617497456765
aF28613.352898019075
aF0.0
aF0.0
aF7705.986959098993
aF9504.950495049505
aF7575.757575757576
aF4096.262160778289
aF2777.777777777778
aF3592.276605298608
aF11362.002013519344
aF11868.94015379472
aF6708.473093189442
aF3906.25
asS'k__Bacteria.p__Proteobacteria.c__Alphaproteobacteria.o__Rhizobiales'
p23
(lp24
F0.0
aF0.0
aF0.0
aF0.0
aF0.0
aF0.0
aF0.0
aF0.0
aF15374.960778161276
aF8857.956342929454
aF2279.981760145918
aF2288.9114954221773
aF0.0
aF0.0
aF4933.051444679351
aF0.0
aF0.0
aF0.0
aF0.0
aF0.0
aF0.0
aF0.0
aF0.0
aF0.0
aF0.0
asS'k__Bacteria.p__Firmicutes.c__Clostridia.o__Clostridiales.f___Mogibacteriaceae_'
p25
(lp26
F0.0
aF0.0
aF0.0
aF0.0
aF452.48868778280547
aF780.64012490242
aF490.075961774075
aF279.2126204104425
aF1255.0988390335735
aF0.0
aF0.0
aF508.646998982706
aF11249.69430178528
aF0.0
aF0.0
aF1580.7152736613318
aF3960.3960396039606
aF1893.939393939394
aF7168.458781362007
aF0.0
aF0.0
aF0.0
aF835.8408559010365
aF1604.2000875018232
aF0.0
asS'k__Bacteria.p__Proteobacteria.c__Betaproteobacteria.o__Neisseriales.f__Neisseriaceae.g__Neisseria'
p27
(lp28
F0.0
aF0.0
aF0.0
aF642.0133538777607
aF0.0
aF0.0
aF0.0
aF0.0
aF10040.790712268588
aF7592.534008225246
aF23711.81030551755
aF12970.498474059003
aF54047.44436292492
aF50990.30762747577
aF33121.91684284708
aF234736.21813870777
aF189702.9702970297
aF224431.81818181818
aF43522.785458269325
aF282777.7777777778
aF8082.622361921869
aF192866.3886092334
aF288365.0952858576
aF514510.7189733119
aF248883.92857142858
asS'k__Bacteria.p__Firmicutes.c__Clostridia.o__Clostridiales.f___Acidaminobacteraceae_'
p29
(lp30
F0.0
aF0.0
aF0.0
aF0.0
aF0.0
aF0.0
aF0.0
aF0.0
aF0.0
aF0.0
aF0.0
aF0.0
aF1467.351430667645
aF0.0
aF0.0
aF0.0
aF0.0
aF0.0
aF0.0
aF0.0
aF0.0
aF0.0
aF0.0
aF0.0
aF0.0
asS'k__Bacteria.p__Bacteroidetes.c__Bacteroidia.o__Bacteroidales.f__Porphyromonadaceae.g__Parabacteroides'
p31
(lp32
F0.0
aF0.0
aF0.0
aF0.0
aF28959.27601809955
aF76658.86026541764
aF26341.58294535653
aF15915.119363395223
aF0.0
aF0.0
aF0.0
aF0.0
aF0.0
aF0.0
aF0.0
aF0.0
aF0.0
aF0.0
aF0.0
aF0.0
aF0.0
aF0.0
aF0.0
aF0.0
aF0.0
asS'k__Bacteria.p__Cyanobacteria.c__Chloroplast.o__Chlorophyta.f__Trebouxiophyceae'
p33
(lp34
F0.0
aF0.0
aF0.0
aF0.0
aF0.0
aF0.0
aF0.0
aF0.0
aF941.3241292751802
aF0.0
aF0.0
aF0.0
aF0.0
aF0.0
aF0.0
aF0.0
aF0.0
aF0.0
aF0.0
aF0.0
aF0.0
aF0.0
aF0.0
aF0.0
aF0.0
asS'k__Bacteria.p__Firmicutes.c__Bacilli.o__Lactobacillales.f__Lactobacillaceae.f__Lactobacillaceae_x__L6'
p35
(lp36
F0.0
aF0.0
aF0.0
aF0.0
aF0.0
aF0.0
aF0.0
aF0.0
aF2510.197678067147
aF3163.555836760519
aF8891.928864569081
aF0.0
aF0.0
aF0.0
aF0.0
aF0.0
aF0.0
aF0.0
aF0.0
aF0.0
aF0.0
aF0.0
aF0.0
aF0.0
aF0.0
asS'k__Bacteria.p__Bacteroidetes.c__Bacteroidia.o__Bacteroidales'
p37
(lp38
F665908.767940884
aF623046.6268580866
aF557480.495640202
aF598484.8484848485
aF533936.6515837105
aF608587.0413739266
aF633300.6616025484
aF686444.2272790729
aF55538.123627235625
aF28788.358114520728
aF57227.542179662545
aF16276.703967446592
aF155783.81022254832
aF18963.337547408344
aF35236.08174770966
aF64611.73681090694
aF190495.0495049505
aF88068.18181818181
aF397849.46236559143
aF76666.66666666667
aF117198.02424786707
aF366029.0522076802
aF60347.70979605484
aF53376.11200233338
aF74218.75
asS'k__Bacteria.p__Bacteroidetes.c__Flavobacteriia.o__Flavobacteriales.f___Weeksellaceae_.g__Chryseobacterium'
p39
(lp40
F0.0
aF0.0
aF0.0
aF0.0
aF0.0
aF0.0
aF0.0
aF0.0
aF17571.38374647003
aF4112.6225877886745
aF0.0
aF0.0
aF0.0
aF0.0
aF7047.216349541931
aF0.0
aF0.0
aF0.0
aF0.0
aF0.0
aF0.0
aF0.0
aF0.0
aF0.0
aF0.0
asS'k__Bacteria.p__TM7.c__TM7_3.c__TM7_3_o__L4.c__TM7_3_f__L5'
p41
(lp42
F0.0
aF0.0
aF0.0
aF0.0
aF0.0
aF0.0
aF0.0
aF0.0
aF0.0
aF0.0
aF0.0
aF0.0
aF0.0
aF0.0
aF0.0
aF0.0
aF0.0
aF0.0
aF0.0
aF0.0
aF0.0
aF287.64562059542646
aF0.0
aF0.0
aF0.0
asS'k__Bacteria.p__FBP.p__FBP_c__L3.p__FBP_o__L4'
p43
(lp44
F0.0
aF0.0
aF0.0
aF0.0
aF0.0
aF0.0
aF0.0
aF0.0
aF0.0
aF0.0
aF455.99635202918364
aF0.0
aF0.0
aF0.0
aF0.0
aF0.0
aF0.0
aF0.0
aF0.0
aF0.0
aF0.0
aF0.0
aF0.0
aF0.0
aF0.0
asS'k__Bacteria.p__Proteobacteria.c__Gammaproteobacteria.o__Enterobacteriales.f__Enterobacteriaceae.f__Enterobacteriaceae_x__L6'
p45
(lp46
F34815.972715645876
aF23885.14801168847
aF0.0
aF4879.301489470981
aF754.1478129713424
aF0.0
aF735.1139426611124
aF8376.378612313274
aF9727.016002510196
aF4745.3337551407785
aF12539.899680802551
aF3560.528992878942
aF0.0
aF0.0
aF0.0
aF0.0
aF0.0
aF0.0
aF0.0
aF0.0
aF0.0
aF0.0
aF0.0
aF0.0
aF0.0
asS'k__Bacteria.p__Synergistetes.c__Synergistia.o__Synergistales.f__Dethiosulfovibrionaceae.g__TG5'
p47
(lp48
F0.0
aF0.0
aF0.0
aF0.0
aF0.0
aF0.0
aF0.0
aF0.0
aF0.0
aF0.0
aF0.0
aF0.0
aF9293.22572756175
aF0.0
aF0.0
aF0.0
aF0.0
aF0.0
aF0.0
aF0.0
aF0.0
aF0.0
aF0.0
aF0.0
aF0.0
asS'k__Bacteria.p__Actinobacteria.c__Actinobacteria.o__Actinomycetales.f__Nocardiaceae.g__Rhodococcus'
p49
(lp50
F0.0
aF0.0
aF0.0
aF0.0
aF0.0
aF0.0
aF0.0
aF0.0
aF4392.8459366175075
aF0.0
aF0.0
aF2288.9114954221773
aF0.0
aF0.0
aF0.0
aF0.0
aF0.0
aF0.0
aF0.0
aF0.0
aF0.0
aF0.0
aF0.0
aF0.0
aF0.0
asS'k__Bacteria.p__Cyanobacteria.c__Chloroplast.o__Chlorophyta.f__Trebouxiophyceae.g__Chloroidium'
p51
(lp52
F0.0
aF0.0
aF0.0
aF0.0
aF0.0
aF0.0
aF0.0
aF0.0
aF941.3241292751802
aF0.0
aF0.0
aF0.0
aF0.0
aF0.0
aF0.0
aF0.0
aF0.0
aF0.0
aF0.0
aF0.0
aF0.0
aF0.0
aF0.0
aF0.0
aF0.0
asS'k__Bacteria.p__Firmicutes.c__Clostridia.o__Clostridiales.o__Clostridiales_f__L5.o__Clostridiales_g__L6'
p53
(lp54
F0.0
aF0.0
aF3441.9458467186782
aF0.0
aF2262.4434389140274
aF0.0
aF4655.721636853712
aF2373.3072734887614
aF0.0
aF2530.844669408415
aF3191.9744642042856
aF3560.528992878942
aF3912.9371484470535
aF0.0
aF0.0
aF1778.3046828689983
aF0.0
aF1420.4545454545455
aF0.0
aF0.0
aF0.0
aF1725.8737235725587
aF2006.0180541624877
aF875.0182295464489
aF1116.0714285714284
asS'k__Bacteria.p__Firmicutes.c__Bacilli.o__Lactobacillales.f__Streptococcaceae'
p55
(lp56
F4263.180332528066
aF0.0
aF573.6576411197798
aF0.0
aF0.0
aF312.25604996096797
aF1470.227885322225
aF0.0
aF56479.44775651081
aF39860.80354318254
aF243274.0538075695
aF97914.54730417092
aF157740.27879677183
aF201432.78550358195
aF207892.882311487
aF130211.42066785222
aF121980.19801980197
aF226799.24242424243
aF124935.99590373784
aF223333.3333333333
aF198473.28244274808
aF99093.9162951244
aF121698.42861919092
aF60667.93058188712
aF114397.32142857142
asS'k__Bacteria.p__Proteobacteria.c__Betaproteobacteria.o__Burkholderiales.f__Burkholderiaceae.g__Lautropia'
p57
(lp58
F0.0
aF0.0
aF0.0
aF0.0
aF0.0
aF0.0
aF0.0
aF0.0
aF11923.43897081895
aF0.0
aF0.0
aF3560.528992878942
aF42064.07434580582
aF5478.297513695744
aF0.0
aF0.0
aF0.0
aF2840.909090909091
aF0.0
aF0.0
aF0.0
aF431.46843089313967
aF835.8408559010365
aF3208.400175003646
aF0.0
asS'k__Bacteria.p__Proteobacteria.c__Deltaproteobacteria.o__Desulfovibrionales'
p59
(lp60
F8810.572687224672
aF3684.411129462583
aF4015.6034878384585
aF10143.81099126862
aF5882.35294117647
aF8274.785323965652
aF3798.0887037490816
aF12843.780538880354
aF941.3241292751802
aF632.7111673521038
aF0.0
aF0.0
aF0.0
aF0.0
aF0.0
aF0.0
aF0.0
aF0.0
aF0.0
aF0.0
aF0.0
aF0.0
aF0.0
aF0.0
aF0.0
asS'k__Bacteria.p__Firmicutes.c__Bacilli.o__Lactobacillales.f__Lactobacillaceae.g__Lactobacillus'
p61
(lp62
F0.0
aF0.0
aF0.0
aF0.0
aF0.0
aF0.0
aF0.0
aF0.0
aF5334.1700658926875
aF3479.911420436571
aF10259.917920656631
aF3560.528992878942
aF0.0
aF19384.74504846186
aF5637.773079633545
aF0.0
aF0.0
aF0.0
aF0.0
aF0.0
aF0.0
aF0.0
aF0.0
aF0.0
aF0.0
asS'k__Bacteria.p__Actinobacteria.c__Actinobacteria.o__Actinomycetales.o__Actinomycetales_f__L5'
p63
(lp64
F0.0
aF0.0
aF0.0
aF0.0
aF0.0
aF0.0
aF0.0
aF0.0
aF0.0
aF0.0
aF0.0
aF1780.264496439471
aF0.0
aF0.0
aF0.0
aF0.0
aF0.0
aF0.0
aF0.0
aF0.0
aF0.0
aF0.0
aF0.0
aF0.0
aF0.0
asS'k__Bacteria.p__Proteobacteria.c__Alphaproteobacteria.o__Rhizobiales.f__Methylobacteriaceae.g__Methylobacterium'
p65
(lp66
F0.0
aF0.0
aF0.0
aF0.0
aF0.0
aF0.0
aF0.0
aF0.0
aF3137.7470975839337
aF1898.1335020563115
aF0.0
aF2288.9114954221773
aF0.0
aF0.0
aF4933.051444679351
aF0.0
aF0.0
aF0.0
aF0.0
aF0.0
aF0.0
aF0.0
aF0.0
aF0.0
aF0.0
asS'k__Bacteria.p__Proteobacteria.c__Gammaproteobacteria.o__Aeromonadales.f__Aeromonadaceae'
p67
(lp68
F0.0
aF0.0
aF0.0
aF0.0
aF0.0
aF0.0
aF0.0
aF0.0
aF4079.071226859114
aF0.0
aF0.0
aF0.0
aF0.0
aF0.0
aF0.0
aF0.0
aF0.0
aF0.0
aF0.0
aF0.0
aF0.0
aF0.0
aF0.0
aF0.0
aF0.0
asS'k__Bacteria.p__Proteobacteria.c__Betaproteobacteria.o__Burkholderiales.f__Comamonadaceae.g__Methylibium'
p69
(lp70
F0.0
aF2668.021852369457
aF4015.6034878384585
aF0.0
aF0.0
aF3122.56049960968
aF0.0
aF0.0
aF0.0
aF0.0
aF0.0
aF0.0
aF0.0
aF0.0
aF0.0
aF0.0
aF0.0
aF0.0
aF0.0
aF0.0
aF0.0
aF0.0
aF0.0
aF0.0
aF0.0
asS'k__Bacteria.p__Proteobacteria.c__Gammaproteobacteria.o__Pseudomonadales.f__Moraxellaceae.f__Moraxellaceae_x__L6'
p71
(lp72
F0.0
aF0.0
aF0.0
aF0.0
aF0.0
aF0.0
aF0.0
aF0.0
aF1255.0988390335735
aF0.0
aF0.0
aF0.0
aF0.0
aF0.0
aF0.0
aF0.0
aF0.0
aF0.0
aF0.0
aF0.0
aF0.0
aF0.0
aF0.0
aF0.0
aF0.0
asS'k__Bacteria.p__Proteobacteria.c__Alphaproteobacteria.o__Sphingomonadales.f__Sphingomonadaceae.f__Sphingomonadaceae_x__L6'
p73
(lp74
F0.0
aF0.0
aF0.0
aF0.0
aF0.0
aF0.0
aF0.0
aF0.0
aF0.0
aF3163.555836760519
aF0.0
aF0.0
aF0.0
aF4635.482511588706
aF0.0
aF0.0
aF0.0
aF0.0
aF0.0
aF0.0
aF0.0
aF0.0
aF0.0
aF0.0
aF0.0
asS'k__Bacteria.p__Proteobacteria.c__Deltaproteobacteria.o__Desulfovibrionales.f__Desulfovibrionaceae.g__Desulfovibrio'
p75
(lp76
F8810.572687224672
aF3684.411129462583
aF4015.6034878384585
aF10143.81099126862
aF3619.9095022624438
aF4215.456674473068
aF2572.898799313894
aF5584.252408208849
aF0.0
aF0.0
aF0.0
aF0.0
aF0.0
aF0.0
aF0.0
aF0.0
aF0.0
aF0.0
aF0.0
aF0.0
aF0.0
aF0.0
aF0.0
aF0.0
aF0.0
asS'k__Bacteria.p__Proteobacteria.c__Gammaproteobacteria.o__Vibrionales.f__Vibrionaceae'
p77
(lp78
F0.0
aF0.0
aF0.0
aF0.0
aF0.0
aF0.0
aF0.0
aF0.0
aF0.0
aF2214.4890857323635
aF0.0
aF0.0
aF0.0
aF0.0
aF0.0
aF0.0
aF0.0
aF0.0
aF0.0
aF0.0
aF0.0
aF0.0
aF0.0
aF0.0
aF0.0
asS'k__Bacteria.p__Firmicutes.c__Clostridia.o__Clostridiales.f__Lachnospiraceae.f__Lachnospiraceae_x__L6'
p79
(lp80
F10373.738809151628
aF28585.94841824418
aF41418.08168884809
aF20929.635336414998
aF74962.29260935143
aF112099.92193598751
aF68978.19161970104
aF20103.308669551858
aF627.5494195167868
aF632.7111673521038
aF1823.9854081167346
aF2543.23499491353
aF2690.1442895573487
aF0.0
aF2114.1649048625795
aF7113.218731475993
aF0.0
aF0.0
aF0.0
aF0.0
aF0.0
aF11505.824823817058
aF8525.576730190573
aF7145.982207962666
aF5580.357142857143
asS'k__Bacteria.p__Firmicutes.c__Clostridia.o__Clostridiales.o__Clostridiales_x__L5'
p81
(lp82
F4973.710387949411
aF3303.265150552661
aF1835.7044515832952
aF5136.106831022085
aF4223.227752639517
aF2966.432474629196
aF0.0
aF6142.677649029735
aF627.5494195167868
aF0.0
aF683.9945280437755
aF0.0
aF0.0
aF0.0
aF1409.4432699083864
aF0.0
aF0.0
aF0.0
aF0.0
aF0.0
aF0.0
aF0.0
aF0.0
aF0.0
aF0.0
asS'k__Bacteria.p__SR1.p__SR1_c__L3'
p83
(lp84
F0.0
aF0.0
aF0.0
aF0.0
aF0.0
aF0.0
aF0.0
aF0.0
aF1568.8735487919669
aF1581.7779183802595
aF0.0
aF0.0
aF0.0
aF0.0
aF0.0
aF0.0
aF0.0
aF0.0
aF0.0
aF0.0
aF0.0
aF0.0
aF0.0
aF0.0
aF0.0
asS'k__Bacteria.p__Proteobacteria.c__Alphaproteobacteria.o__Rhizobiales.f__Hyphomicrobiaceae'
p85
(lp86
F0.0
aF0.0
aF0.0
aF0.0
aF0.0
aF0.0
aF0.0
aF0.0
aF0.0
aF0.0
aF2279.981760145918
aF0.0
aF0.0
aF0.0
aF0.0
aF0.0
aF0.0
aF0.0
aF0.0
aF0.0
aF0.0
aF0.0
aF0.0
aF0.0
aF0.0
asS'k__Bacteria.p__Firmicutes.c__Clostridia.o__Clostridiales.f__Lachnospiraceae.g__Dorea'
p87
(lp88
F2557.90819951684
aF3049.1678312793792
aF2524.0936209270303
aF4237.28813559322
aF0.0
aF2029.6643247462919
aF2205.341827983337
aF1256.456791846991
aF0.0
aF4428.978171464727
aF0.0
aF0.0
aF0.0
aF0.0
aF0.0
aF0.0
aF0.0
aF0.0
aF0.0
aF0.0
aF0.0
aF0.0
aF0.0
aF0.0
aF0.0
asS'k__Bacteria.p__Firmicutes.c__Bacilli.o__Lactobacillales.f__Lactobacillaceae'
p89
(lp90
F0.0
aF0.0
aF0.0
aF0.0
aF0.0
aF0.0
aF0.0
aF0.0
aF7844.367743959834
aF6643.4672571970905
aF19151.846785225713
aF3560.528992878942
aF0.0
aF19384.74504846186
aF5637.773079633545
aF0.0
aF0.0
aF0.0
aF0.0
aF0.0
aF0.0
aF0.0
aF0.0
aF0.0
aF0.0
asS'k__Bacteria.p__Proteobacteria'
p91
(lp92
F44337.07545829189
aF41163.76572227162
aF21684.258834327673
aF20159.219311761684
aF13876.3197586727
aF23731.459797033567
aF5758.392550845381
aF22755.828563451065
aF497646.68967681186
aF601708.3201518508
aF131554.9475604195
aF349694.8118006104
aF186109.07312301296
aF266329.54066582385
aF163495.41930937278
aF512349.3380754791
aF351287.1287128713
aF414299.24242424243
aF184331.79723502303
aF546111.1111111111
aF273911.0911540188
aF312814.6123975262
aF510197.25844199274
aF665451.3635700744
aF549665.1785714286
asS'k__Bacteria.p__Proteobacteria.c__Alphaproteobacteria.o__Rhodospirillales.f__Rhodospirillaceae.g__Skermanella'
p93
(lp94
F0.0
aF0.0
aF0.0
aF0.0
aF0.0
aF0.0
aF0.0
aF0.0
aF0.0
aF0.0
aF0.0
aF762.970498474059
aF0.0
aF0.0
aF0.0
aF0.0
aF0.0
aF0.0
aF0.0
aF0.0
aF0.0
aF0.0
aF0.0
aF0.0
aF0.0
asS'k__Bacteria.p__Proteobacteria.c__Betaproteobacteria.o__Burkholderiales.f__Alcaligenaceae.g__Pusillimonas'
p95
(lp96
F0.0
aF0.0
aF0.0
aF0.0
aF0.0
aF0.0
aF0.0
aF0.0
aF5334.1700658926875
aF0.0
aF0.0
aF0.0
aF0.0
aF0.0
aF0.0
aF0.0
aF0.0
aF0.0
aF0.0
aF0.0
aF0.0
aF0.0
aF0.0
aF0.0
aF0.0
asS'k__Bacteria.p__Proteobacteria.p__Proteobacteria_x__L3.p__Proteobacteria_x__L4.p__Proteobacteria_x__L5.p__Proteobacteria_x__L6'
p97
(lp98
F0.0
aF0.0
aF0.0
aF0.0
aF0.0
aF0.0
aF0.0
aF0.0
aF941.3241292751802
aF0.0
aF0.0
aF0.0
aF0.0
aF0.0
aF0.0
aF0.0
aF0.0
aF0.0
aF0.0
aF0.0
aF0.0
aF0.0
aF0.0
aF0.0
aF0.0
asS'k__Bacteria.p__Actinobacteria.c__Actinobacteria.o__Actinomycetales.f__Propionibacteriaceae'
p99
(lp100
F0.0
aF0.0
aF0.0
aF0.0
aF0.0
aF0.0
aF0.0
aF0.0
aF2196.4229683087538
aF949.0667510281557
aF7067.943456452346
aF1780.264496439471
aF8559.550012227928
aF7585.3350189633375
aF21846.370683579986
aF0.0
aF0.0
aF0.0
aF0.0
aF0.0
aF0.0
aF0.0
aF0.0
aF0.0
aF0.0
asS'k__Bacteria.p__Proteobacteria.c__Betaproteobacteria.o__Burkholderiales.o__Burkholderiales_x__L5'
p101
(lp102
F0.0
aF10926.18472875111
aF13653.051858650757
aF4494.093477144324
aF7239.8190045248875
aF12334.113973458236
aF0.0
aF0.0
aF0.0
aF0.0
aF0.0
aF0.0
aF0.0
aF0.0
aF0.0
aF0.0
aF0.0
aF0.0
aF0.0
aF0.0
aF0.0
aF0.0
aF0.0
aF0.0
aF0.0
asS'k__Bacteria.p__Fusobacteria'
p103
(lp104
F426.3180332528067
aF0.0
aF0.0
aF3980.4827940421164
aF0.0
aF0.0
aF0.0
aF0.0
aF35456.54220269845
aF28472.002530844675
aF37847.69721842225
aF49338.758901322486
aF149669.8459280998
aF11799.410029498526
aF33826.63847780127
aF132582.4935783442
aF209108.91089108912
aF103693.18181818182
aF58883.76856118792
aF26111.111111111113
aF82622.361921868
aF103552.42341435351
aF163657.63958542293
aF97418.69622283797
aF98214.28571428571
asS'k__Bacteria.p__Bacteroidetes.c__Bacteroidia.o__Bacteroidales.f___Barnesiellaceae_'
p105
(lp106
F0.0
aF0.0
aF0.0
aF0.0
aF1809.9547511312219
aF1717.408274785324
aF735.1139426611124
aF0.0
aF0.0
aF0.0
aF0.0
aF0.0
aF0.0
aF0.0
aF0.0
aF0.0
aF0.0
aF0.0
aF0.0
aF0.0
aF0.0
aF0.0
aF0.0
aF0.0
aF0.0
asS'k__Bacteria.p__Proteobacteria.c__Gammaproteobacteria.o__Pasteurellales'
p107
(lp108
F710.5300554213444
aF0.0
aF0.0
aF0.0
aF0.0
aF0.0
aF612.5949522175938
aF0.0
aF143395.0423595858
aF27522.935779816515
aF27359.78112175102
aF22634.791454730417
aF44509.66006358523
aF52254.530130636325
aF41578.57646229739
aF233353.0922742541
aF154455.44554455444
aF169034.0909090909
aF130056.3236047107
aF258888.8888888889
aF237539.29052537045
aF104127.71465554436
aF215814.10899364765
aF137086.18929561033
aF296875.0
asS'k__Bacteria.p__Firmicutes.c__Bacilli.o__Turicibacterales.f__Turicibacteraceae'
p109
(lp110
F0.0
aF381.1459789099224
aF0.0
aF0.0
aF0.0
aF0.0
aF0.0
aF0.0
aF0.0
aF0.0
aF0.0
aF0.0
aF0.0
aF0.0
aF0.0
aF0.0
aF0.0
aF0.0
aF0.0
aF0.0
aF0.0
aF0.0
aF0.0
aF0.0
aF0.0
asS'k__Bacteria.p__Firmicutes.c__Clostridia.o__Clostridiales.f__Christensenellaceae.f__Christensenellaceae_g__L6'
p111
(lp112
F0.0
aF0.0
aF0.0
aF0.0
aF0.0
aF468.384074941452
aF0.0
aF0.0
aF0.0
aF0.0
aF0.0
aF0.0
aF0.0
aF0.0
aF0.0
aF0.0
aF0.0
aF0.0
aF0.0
aF0.0
aF0.0
aF0.0
aF0.0
aF0.0
aF0.0
asS'k__Bacteria.p__Firmicutes.c__Clostridia.o__Clostridiales.f__Peptostreptococcaceae'
p113
(lp114
F0.0
aF0.0
aF0.0
aF0.0
aF0.0
aF0.0
aF0.0
aF0.0
aF1255.0988390335735
aF1265.4223347042075
aF0.0
aF0.0
aF6113.96429444852
aF0.0
aF0.0
aF1580.7152736613318
aF0.0
aF0.0
aF0.0
aF0.0
aF0.0
aF0.0
aF1671.681711802073
aF2625.0546886393468
aF1116.0714285714284
asS'k__Bacteria.p__Bacteroidetes.c__Flavobacteriia.o__Flavobacteriales.f___Weeksellaceae_.g__Cloacibacterium'
p115
(lp116
F0.0
aF0.0
aF0.0
aF0.0
aF0.0
aF0.0
aF0.0
aF0.0
aF0.0
aF0.0
aF0.0
aF1780.264496439471
aF0.0
aF0.0
aF0.0
aF0.0
aF0.0
aF0.0
aF0.0
aF0.0
aF0.0
aF0.0
aF0.0
aF0.0
aF0.0
asS'k__Bacteria.p__Firmicutes.c__Bacilli.o__Bacillales.f__Bacillaceae.g__Bacillus'
p117
(lp118
F0.0
aF0.0
aF0.0
aF0.0
aF0.0
aF0.0
aF0.0
aF0.0
aF13492.312519610916
aF0.0
aF0.0
aF0.0
aF0.0
aF0.0
aF0.0
aF0.0
aF0.0
aF0.0
aF0.0
aF0.0
aF0.0
aF0.0
aF0.0
aF0.0
aF0.0
asS'k__Bacteria.p__Firmicutes.c__Clostridia.o__Clostridiales.f__Ruminococcaceae.g__Ruminococcus'
p119
(lp120
F1278.95409975842
aF0.0
aF20766.406608536025
aF3210.066769388803
aF24736.048265460027
aF25917.252146760344
aF9433.962264150943
aF1535.6694122574338
aF0.0
aF0.0
aF0.0
aF508.646998982706
aF0.0
aF0.0
aF3523.6081747709654
aF0.0
aF0.0
aF0.0
aF0.0
aF0.0
aF0.0
aF0.0
aF0.0
aF0.0
aF0.0
asS'k__Bacteria.p__Tenericutes.c__Mollicutes'
p121
(lp122
F0.0
aF0.0
aF0.0
aF0.0
aF0.0
aF0.0
aF0.0
aF0.0
aF3451.5218073423275
aF949.0667510281557
aF0.0
aF2543.23499491353
aF0.0
aF0.0
aF0.0
aF0.0
aF0.0
aF0.0
aF0.0
aF0.0
aF0.0
aF0.0
aF0.0
aF0.0
aF0.0
asS'k__Bacteria.p__Proteobacteria.c__Gammaproteobacteria.o__Legionellales.f__Legionellaceae'
p123
(lp124
F0.0
aF0.0
aF0.0
aF0.0
aF0.0
aF0.0
aF0.0
aF0.0
aF0.0
aF632.7111673521038
aF0.0
aF0.0
aF0.0
aF0.0
aF0.0
aF0.0
aF0.0
aF0.0
aF0.0
aF0.0
aF0.0
aF0.0
aF0.0
aF0.0
aF0.0
asS'k__Bacteria.p__Proteobacteria.c__Alphaproteobacteria.o__Rhizobiales.f__Brucellaceae'
p125
(lp126
F0.0
aF0.0
aF0.0
aF0.0
aF0.0
aF0.0
aF0.0
aF0.0
aF12237.213680577343
aF0.0
aF0.0
aF0.0
aF0.0
aF0.0
aF0.0
aF0.0
aF0.0
aF0.0
aF0.0
aF0.0
aF0.0
aF0.0
aF0.0
aF0.0
aF0.0
asS'k__Bacteria.p__Firmicutes.c__Clostridia.o__Clostridiales.f__Veillonellaceae.f__Veillonellaceae_x__L6'
p127
(lp128
F0.0
aF0.0
aF0.0
aF0.0
aF0.0
aF0.0
aF0.0
aF0.0
aF0.0
aF0.0
aF0.0
aF0.0
aF7825.874296894107
aF0.0
aF0.0
aF0.0
aF0.0
aF0.0
aF3584.2293906810037
aF0.0
aF0.0
aF3164.101826549691
aF0.0
aF0.0
aF0.0
asS'k__Bacteria.p__Bacteroidetes.c__Sphingobacteriia'
p129
(lp130
F0.0
aF0.0
aF0.0
aF0.0
aF0.0
aF0.0
aF0.0
aF0.0
aF14119.861939127704
aF63587.47231888643
aF1595.9872321021428
aF0.0
aF0.0
aF5899.705014749263
aF6342.494714587738
aF0.0
aF0.0
aF0.0
aF0.0
aF0.0
aF0.0
aF0.0
aF0.0
aF0.0
aF0.0
asS'k__Bacteria.p__Bacteroidetes.c__Bacteroidia.o__Bacteroidales.f__Prevotellaceae'
p131
(lp132
F0.0
aF0.0
aF0.0
aF10272.21366204417
aF0.0
aF0.0
aF0.0
aF7957.559681697611
aF5961.719485409475
aF3163.555836760519
aF27359.78112175102
aF4069.175991861648
aF102714.60014673515
aF0.0
aF6342.494714587738
aF55917.802805769614
aF186930.69306930693
aF80492.42424242424
aF375832.0532514081
aF69444.44444444445
aF111360.57476425685
aF277578.0238745865
aF46639.919759277844
aF44188.420592095674
aF60267.857142857145
asS'k__Bacteria.p__Proteobacteria.c__Deltaproteobacteria'
p133
(lp134
F8810.572687224672
aF3684.411129462583
aF4015.6034878384585
aF10143.81099126862
aF5882.35294117647
aF8274.785323965652
aF3798.0887037490816
aF12843.780538880354
aF2196.4229683087538
aF632.7111673521038
aF0.0
aF0.0
aF0.0
aF0.0
aF0.0
aF0.0
aF0.0
aF0.0
aF0.0
aF0.0
aF0.0
aF0.0
aF0.0
aF0.0
aF0.0
asS'k__Bacteria.p__Firmicutes.c__Clostridia.o__Clostridiales.f__Lachnospiraceae.g__Anaerostipes'
p135
(lp136
F1705.2721330112267
aF889.3406174564857
aF0.0
aF0.0
aF0.0
aF0.0
aF0.0
aF0.0
aF0.0
aF0.0
aF0.0
aF0.0
aF0.0
aF0.0
aF0.0
aF0.0
aF0.0
aF0.0
aF0.0
aF0.0
aF0.0
aF0.0
aF0.0
aF0.0
aF0.0
asS'k__Bacteria.p__Proteobacteria.c__Betaproteobacteria.o__Burkholderiales.f__Comamonadaceae.g__Hydrogenophaga'
p137
(lp138
F0.0
aF0.0
aF0.0
aF0.0
aF0.0
aF0.0
aF0.0
aF0.0
aF0.0
aF0.0
aF0.0
aF0.0
aF0.0
aF0.0
aF0.0
aF2371.0729104919974
aF0.0
aF0.0
aF0.0
aF0.0
aF0.0
aF0.0
aF0.0
aF0.0
aF0.0
asS'k__Bacteria.p__Proteobacteria.c__Alphaproteobacteria.o__Sphingomonadales'
p139
(lp140
F0.0
aF0.0
aF0.0
aF0.0
aF0.0
aF0.0
aF0.0
aF0.0
aF17257.609036711638
aF9490.667510281557
aF5927.952576379387
aF5340.793489318413
aF1467.351430667645
aF7585.3350189633375
aF11980.267794221281
aF0.0
aF0.0
aF0.0
aF0.0
aF0.0
aF0.0
aF0.0
aF0.0
aF0.0
aF0.0
asS'k__Bacteria.p__Bacteroidetes.c__Flavobacteriia.o__Flavobacteriales'
p141
(lp142
F0.0
aF0.0
aF0.0
aF0.0
aF0.0
aF0.0
aF0.0
aF0.0
aF68089.11201757137
aF29737.424865548885
aF5015.95987232102
aF4577.8229908443545
aF24211.298606016142
aF4214.075010535187
aF11980.267794221281
aF4149.377593360996
aF0.0
aF1420.4545454545455
aF0.0
aF0.0
aF2245.17287831163
aF3307.924636847404
aF1671.681711802073
aF1166.6909727285986
aF0.0
asS'k__Bacteria.p__Verrucomicrobia.c___Pedosphaerae_.o___Pedosphaerales_.o___Pedosphaerales__f__L5.o___Pedosphaerales__g__L6'
p143
(lp144
F0.0
aF0.0
aF0.0
aF0.0
aF0.0
aF0.0
aF0.0
aF0.0
aF0.0
aF0.0
aF0.0
aF0.0
aF0.0
aF0.0
aF1409.4432699083864
aF0.0
aF0.0
aF0.0
aF0.0
aF0.0
aF0.0
aF0.0
aF0.0
aF0.0
aF0.0
asS'k__Bacteria.p__Bacteroidetes.c___Saprospirae_.o___Saprospirales_.f__Chitinophagaceae.f__Chitinophagaceae_g__L6'
p145
(lp146
F0.0
aF0.0
aF0.0
aF0.0
aF0.0
aF0.0
aF0.0
aF0.0
aF0.0
aF0.0
aF1367.989056087551
aF0.0
aF0.0
aF0.0
aF0.0
aF0.0
aF0.0
aF0.0
aF0.0
aF0.0
aF0.0
aF0.0
aF0.0
aF0.0
aF0.0
asS'k__Bacteria.p__Proteobacteria.c__Epsilonproteobacteria.o__Campylobacterales.f__Campylobacteraceae.g__Campylobacter'
p147
(lp148
F0.0
aF0.0
aF0.0
aF0.0
aF0.0
aF0.0
aF0.0
aF0.0
aF1882.6482585503604
aF0.0
aF911.9927040583673
aF1017.293997965412
aF16629.982880899977
aF3371.2600084281503
aF2114.1649048625795
aF6718.03991306066
aF7128.712871287129
aF17992.424242424244
aF10752.688172043012
aF4444.444444444444
aF4490.34575662326
aF15389.040701855314
aF5182.213306586426
aF10646.055126148462
aF3906.25
asS'k__Bacteria.p__Bacteroidetes.c__Bacteroidia.o__Bacteroidales.f___Paraprevotellaceae_.g___Prevotella_'
p149
(lp150
F0.0
aF0.0
aF0.0
aF0.0
aF0.0
aF0.0
aF0.0
aF0.0
aF12550.988390335735
aF8857.956342929454
aF23027.815777473774
aF4069.175991861648
aF23233.064318904377
aF9270.965023177412
aF4933.051444679351
aF2766.2517289073307
aF1584.1584158415842
aF5208.333333333333
aF22017.409114183305
aF0.0
aF1347.103726986978
aF81691.35624910111
aF7188.231360748914
aF2187.545573866122
aF0.0
asS'k__Bacteria.p__Proteobacteria.c__Betaproteobacteria.o__Burkholderiales.f__Comamonadaceae.f__Comamonadaceae_x__L6'
p151
(lp152
F0.0
aF0.0
aF0.0
aF0.0
aF0.0
aF0.0
aF0.0
aF1535.6694122574338
aF16316.284907436457
aF0.0
aF4787.961696306428
aF8646.998982706004
aF8804.10858400587
aF0.0
aF0.0
aF27267.338470657975
aF0.0
aF0.0
aF0.0
aF0.0
aF0.0
aF0.0
aF0.0
aF0.0
aF0.0
asS'k__Bacteria.p__Proteobacteria.c__Deltaproteobacteria.o__Desulfovibrionales.f__Desulfomicrobiaceae.g__Desulfomicrobium'
p153
(lp154
F0.0
aF0.0
aF0.0
aF0.0
aF0.0
aF0.0
aF0.0
aF0.0
aF941.3241292751802
aF0.0
aF0.0
aF0.0
aF0.0
aF0.0
aF0.0
aF0.0
aF0.0
aF0.0
aF0.0
aF0.0
aF0.0
aF0.0
aF0.0
aF0.0
aF0.0
asS'k__Bacteria.p__Bacteroidetes.c__Cytophagia.o__Cytophagales.f__Cytophagaceae.g__Flectobacillus'
p155
(lp156
F0.0
aF0.0
aF0.0
aF0.0
aF0.0
aF0.0
aF0.0
aF0.0
aF2510.197678067147
aF1898.1335020563115
aF0.0
aF0.0
aF2445.5857177794082
aF0.0
aF0.0
aF0.0
aF0.0
aF0.0
aF0.0
aF0.0
aF0.0
aF0.0
aF0.0
aF0.0
aF0.0
asS'k__Bacteria.p___Thermi_.c__Deinococci'
p157
(lp158
F0.0
aF0.0
aF0.0
aF0.0
aF0.0
aF0.0
aF0.0
aF0.0
aF0.0
aF0.0
aF1595.9872321021428
aF1271.617497456765
aF0.0
aF0.0
aF0.0
aF0.0
aF0.0
aF0.0
aF0.0
aF0.0
aF0.0
aF0.0
aF0.0
aF0.0
aF0.0
asS'k__Bacteria.p__Bacteroidetes.c__Bacteroidia.o__Bacteroidales.o__Bacteroidales_f__L5.o__Bacteroidales_g__L6'
p159
(lp160
F0.0
aF0.0
aF0.0
aF0.0
aF0.0
aF0.0
aF0.0
aF0.0
aF0.0
aF0.0
aF0.0
aF0.0
aF1467.351430667645
aF0.0
aF0.0
aF0.0
aF0.0
aF0.0
aF0.0
aF0.0
aF0.0
aF0.0
aF0.0
aF0.0
aF0.0
asS'k__Bacteria.p__Firmicutes.c__Clostridia.o__Clostridiales.f___Mogibacteriaceae_.g__Mogibacterium'
p161
(lp162
F0.0
aF0.0
aF0.0
aF0.0
aF0.0
aF0.0
aF0.0
aF279.2126204104425
aF0.0
aF0.0
aF0.0
aF0.0
aF2445.5857177794082
aF0.0
aF0.0
aF0.0
aF0.0
aF1893.939393939394
aF3584.2293906810037
aF0.0
aF0.0
aF0.0
aF835.8408559010365
aF437.50911477322444
aF0.0
asS'k__Bacteria.p__Firmicutes.c__Clostridia.o__Clostridiales.f__Veillonellaceae.g__Phascolarctobacterium'
p163
(lp164
F76168.82194116812
aF19438.44492440604
aF55071.13354749885
aF18746.78993323061
aF12820.51282051282
aF14832.16237314598
aF17152.658662092625
aF33924.33337986876
aF0.0
aF0.0
aF0.0
aF0.0
aF0.0
aF1264.2225031605565
aF3523.6081747709654
aF0.0
aF0.0
aF0.0
aF0.0
aF0.0
aF0.0
aF0.0
aF0.0
aF0.0
aF0.0
asS'k__Bacteria.p__Firmicutes.c__Clostridia.o__Clostridiales.f__Veillonellaceae.g__Veillonella'
p165
(lp166
F0.0
aF0.0
aF0.0
aF0.0
aF0.0
aF0.0
aF857.6329331046312
aF0.0
aF4079.071226859114
aF0.0
aF18923.848609211123
aF9409.969481180062
aF27390.56003912937
aF8849.557522123894
aF0.0
aF58684.05453467694
aF58217.821782178224
aF67234.84848484848
aF144393.24116743472
aF56111.11111111111
aF64660.97889537495
aF73205.81044153603
aF45636.91073219659
aF47542.65713869039
aF54687.5
asS'k__Bacteria.p__Firmicutes.c__Bacilli.o__Turicibacterales'
p167
(lp168
F0.0
aF381.1459789099224
aF0.0
aF0.0
aF0.0
aF0.0
aF0.0
aF0.0
aF0.0
aF0.0
aF0.0
aF0.0
aF0.0
aF0.0
aF0.0
aF0.0
aF0.0
aF0.0
aF0.0
aF0.0
aF0.0
aF0.0
aF0.0
aF0.0
aF0.0
asS'k__Bacteria.p__Firmicutes.c__Erysipelotrichi.o__Erysipelotrichales.f__Erysipelotrichaceae.g__Catenibacterium'
p169
(lp170
F0.0
aF0.0
aF0.0
aF0.0
aF0.0
aF0.0
aF0.0
aF0.0
aF1882.6482585503604
aF1898.1335020563115
aF0.0
aF0.0
aF0.0
aF0.0
aF0.0
aF0.0
aF0.0
aF0.0
aF0.0
aF0.0
aF0.0
aF0.0
aF0.0
aF0.0
aF0.0
asS'k__Bacteria.p__Proteobacteria.c__Betaproteobacteria.o__Neisseriales.f__Neisseriaceae'
p171
(lp172
F0.0
aF0.0
aF0.0
aF642.0133538777607
aF0.0
aF0.0
aF0.0
aF0.0
aF44242.23407593347
aF15501.423600126544
aF24851.80118559051
aF12970.498474059003
aF57226.70579603815
aF50990.30762747577
aF33121.91684284708
aF236712.11223078443
aF189702.9702970297
aF224431.81818181818
aF43522.785458269325
aF282777.7777777778
aF8082.622361921869
aF192866.3886092334
aF288365.0952858576
aF514510.7189733119
aF248883.92857142858
asS'k__Bacteria.p__Proteobacteria.c__Alphaproteobacteria.o__Rhizobiales.f__Hyphomicrobiaceae.g__Devosia'
p173
(lp174
F0.0
aF0.0
aF0.0
aF0.0
aF0.0
aF0.0
aF0.0
aF0.0
aF0.0
aF0.0
aF2279.981760145918
aF0.0
aF0.0
aF0.0
aF0.0
aF0.0
aF0.0
aF0.0
aF0.0
aF0.0
aF0.0
aF0.0
aF0.0
aF0.0
aF0.0
asS'k__Bacteria.p__Bacteroidetes'
p175
(lp176
F665908.767940884
aF623046.6268580866
aF557480.495640202
aF598484.8484848485
aF533936.6515837105
aF608587.0413739266
aF633300.6616025484
aF686444.2272790729
aF148101.6630059617
aF128440.36697247709
aF67031.46374829
aF25432.349949135303
aF182440.69454634385
aF29077.117572692794
aF53558.84425651868
aF68761.11440426794
aF190495.0495049505
aF89488.63636363635
aF397849.46236559143
aF76666.66666666667
aF119443.19712617871
aF369336.9768445275
aF62019.39150785692
aF54542.802975061975
aF74218.75
asS'k__Bacteria.p__Actinobacteria.c__Coriobacteriia.o__Coriobacteriales'
p177
(lp178
F0.0
aF0.0
aF0.0
aF0.0
aF0.0
aF468.384074941452
aF245.0379808870375
aF0.0
aF0.0
aF0.0
aF0.0
aF0.0
aF3668.378576669112
aF0.0
aF0.0
aF0.0
aF0.0
aF0.0
aF2560.1638504864313
aF0.0
aF0.0
aF1869.6965338702719
aF1170.1771982614512
aF729.1818579553741
aF0.0
asS'k__Bacteria.p__Firmicutes.c__Clostridia.o__Clostridiales.f___Tissierellaceae_.g__1_68'
p179
(lp180
F0.0
aF0.0
aF0.0
aF0.0
aF0.0
aF0.0
aF0.0
aF0.0
aF1568.8735487919669
aF0.0
aF0.0
aF2543.23499491353
aF1467.351430667645
aF0.0
aF0.0
aF0.0
aF0.0
aF0.0
aF0.0
aF0.0
aF0.0
aF0.0
aF0.0
aF0.0
aF0.0
asS'k__Bacteria.p__Cyanobacteria.c__Chloroplast.o__Chlorophyta'
p181
(lp182
F0.0
aF0.0
aF0.0
aF0.0
aF0.0
aF0.0
aF0.0
aF0.0
aF941.3241292751802
aF0.0
aF0.0
aF762.970498474059
aF0.0
aF0.0
aF0.0
aF0.0
aF0.0
aF0.0
aF0.0
aF0.0
aF0.0
aF0.0
aF0.0
aF0.0
aF0.0
asS'k__Bacteria.p__Firmicutes.c__Clostridia.o__Clostridiales.f__Veillonellaceae.g__Dialister'
p183
(lp184
F0.0
aF0.0
aF0.0
aF1027.221366204417
aF0.0
aF0.0
aF0.0
aF1535.6694122574338
aF0.0
aF0.0
aF0.0
aF0.0
aF8070.432868672046
aF0.0
aF0.0
aF0.0
aF0.0
aF0.0
aF0.0
aF0.0
aF0.0
aF0.0
aF0.0
aF0.0
aF0.0
asS'k__Bacteria.p__Verrucomicrobia.c__Verrucomicrobiae.o__Verrucomicrobiales'
p185
(lp186
F82705.69845104449
aF1143.4379367297672
aF3671.4089031665903
aF25808.93682588598
aF0.0
aF936.768149882904
aF367.5569713305562
aF0.0
aF0.0
aF0.0
aF0.0
aF762.970498474059
aF0.0
aF0.0
aF0.0
aF0.0
aF0.0
aF0.0
aF0.0
aF0.0
aF0.0
aF0.0
aF0.0
aF0.0
aF0.0
asS'k__Bacteria.p__Bacteroidetes.c__Bacteroidia.o__Bacteroidales.f__Porphyromonadaceae.g__Paludibacter'
p187
(lp188
F0.0
aF0.0
aF0.0
aF0.0
aF0.0
aF0.0
aF0.0
aF0.0
aF0.0
aF0.0
aF2507.97993616051
aF1780.264496439471
aF10760.577158229395
aF0.0
aF0.0
aF0.0
aF0.0
aF0.0
aF0.0
aF0.0
aF0.0
aF0.0
aF0.0
aF0.0
aF0.0
asS'k__Bacteria.p__Firmicutes.c__Clostridia.o__Clostridiales.f__Peptostreptococcaceae.g__Filifactor'
p189
(lp190
F0.0
aF0.0
aF0.0
aF0.0
aF0.0
aF0.0
aF0.0
aF0.0
aF0.0
aF1265.4223347042075
aF0.0
aF0.0
aF0.0
aF0.0
aF0.0
aF0.0
aF0.0
aF0.0
aF0.0
aF0.0
aF0.0
aF0.0
aF0.0
aF0.0
aF0.0
asS'k__Bacteria.p__Firmicutes.c__Bacilli.o__Gemellales'
p191
(lp192
F0.0
aF0.0
aF0.0
aF0.0
aF0.0
aF0.0
aF0.0
aF0.0
aF5020.395356134294
aF0.0
aF11171.910624715
aF3560.528992878942
aF3668.378576669112
aF12642.225031605562
aF0.0
aF9681.881051175656
aF17821.78217821782
aF6628.787878787879
aF8192.524321556579
aF11666.666666666668
aF13022.002694207453
aF1438.2281029771323
aF6018.054162487462
aF2041.7092022750476
aF10602.678571428572
asS'k__Bacteria.p__Spirochaetes.c__Spirochaetes.o__Spirochaetales.f__Spirochaetaceae.g__Treponema'
p193
(lp194
F0.0
aF0.0
aF0.0
aF0.0
aF0.0
aF0.0
aF0.0
aF0.0
aF0.0
aF0.0
aF0.0
aF0.0
aF12961.604304230863
aF0.0
aF0.0
aF0.0
aF0.0
aF0.0
aF0.0
aF0.0
aF0.0
aF0.0
aF0.0
aF0.0
aF0.0
asS'k__Bacteria.p__Proteobacteria.c__Gammaproteobacteria.o__Alteromonadales.f__Alteromonadaceae.g__Cellvibrio'
p195
(lp196
F0.0
aF0.0
aF0.0
aF0.0
aF0.0
aF0.0
aF0.0
aF0.0
aF1255.0988390335735
aF0.0
aF0.0
aF0.0
aF0.0
aF0.0
aF0.0
aF0.0
aF0.0
aF0.0
aF0.0
aF0.0
aF0.0
aF0.0
aF0.0
aF0.0
aF0.0
asS'k__Bacteria.p__Proteobacteria.c__Betaproteobacteria.o__Burkholderiales.f__Comamonadaceae.g__Acidovorax'
p197
(lp198
F0.0
aF0.0
aF0.0
aF0.0
aF0.0
aF0.0
aF0.0
aF0.0
aF0.0
aF0.0
aF0.0
aF6866.73448626653
aF0.0
aF0.0
aF0.0
aF0.0
aF0.0
aF0.0
aF0.0
aF0.0
aF0.0
aF0.0
aF0.0
aF0.0
aF0.0
asS'k__Bacteria.p__Firmicutes.c__Clostridia.o__Clostridiales.f__Clostridiaceae'
p199
(lp200
F0.0
aF2159.827213822894
aF1032.5837540156035
aF4750.898818695429
aF2111.6138763197587
aF1873.536299765808
aF2327.860818426856
aF0.0
aF5961.719485409475
aF6959.822840873142
aF2735.978112175102
aF0.0
aF0.0
aF0.0
aF1409.4432699083864
aF0.0
aF0.0
aF0.0
aF0.0
aF0.0
aF0.0
aF0.0
aF0.0
aF0.0
aF0.0
asS'k__Bacteria.p__Firmicutes.c__Clostridia.o__OPB54'
p201
(lp202
F0.0
aF0.0
aF0.0
aF0.0
aF0.0
aF0.0
aF0.0
aF0.0
aF627.5494195167868
aF0.0
aF0.0
aF0.0
aF0.0
aF0.0
aF0.0
aF0.0
aF0.0
aF0.0
aF0.0
aF0.0
aF0.0
aF0.0
aF0.0
aF0.0
aF0.0
asS'k__Bacteria.p__Bacteroidetes.c__Cytophagia.o__Cytophagales.f__Cytophagaceae'
p203
(lp204
F0.0
aF0.0
aF0.0
aF0.0
aF0.0
aF0.0
aF0.0
aF0.0
aF2510.197678067147
aF1898.1335020563115
aF1823.9854081167346
aF1780.264496439471
aF2445.5857177794082
aF0.0
aF0.0
aF0.0
aF0.0
aF0.0
aF0.0
aF0.0
aF0.0
aF0.0
aF0.0
aF0.0
aF0.0
asS'k__Bacteria.p__Firmicutes.c__Bacilli.o__Lactobacillales.f__Aerococcaceae'
p205
(lp206
F0.0
aF0.0
aF0.0
aF0.0
aF0.0
aF0.0
aF0.0
aF0.0
aF0.0
aF0.0
aF0.0
aF1780.264496439471
aF4891.1714355588165
aF26127.265065318163
aF2114.1649048625795
aF0.0
aF0.0
aF0.0
aF0.0
aF0.0
aF0.0
aF0.0
aF0.0
aF0.0
aF0.0
asS'k__Bacteria.p__Firmicutes.c__Clostridia.o__Clostridiales.f___Tissierellaceae_.g__Helcococcus'
p207
(lp208
F0.0
aF0.0
aF0.0
aF0.0
aF0.0
aF0.0
aF0.0
aF0.0
aF0.0
aF0.0
aF683.9945280437755
aF1271.617497456765
aF0.0
aF0.0
aF0.0
aF0.0
aF0.0
aF0.0
aF0.0
aF0.0
aF0.0
aF0.0
aF0.0
aF0.0
aF0.0
asS'k__Bacteria.p__Proteobacteria.c__Deltaproteobacteria.o__Desulfovibrionales.f__Desulfomicrobiaceae.f__Desulfomicrobiaceae_g__L6'
p209
(lp210
F0.0
aF0.0
aF0.0
aF0.0
aF0.0
aF0.0
aF0.0
aF0.0
aF0.0
aF632.7111673521038
aF0.0
aF0.0
aF0.0
aF0.0
aF0.0
aF0.0
aF0.0
aF0.0
aF0.0
aF0.0
aF0.0
aF0.0
aF0.0
aF0.0
aF0.0
asS'k__Bacteria.p__GN02'
p211
(lp212
F0.0
aF0.0
aF0.0
aF0.0
aF0.0
aF0.0
aF0.0
aF0.0
aF627.5494195167868
aF0.0
aF683.9945280437755
aF0.0
aF733.6757153338225
aF0.0
aF0.0
aF0.0
aF0.0
aF0.0
aF0.0
aF0.0
aF0.0
aF0.0
aF0.0
aF0.0
aF0.0
asS'k__Bacteria.p__Firmicutes.c__Clostridia.o__Clostridiales.f__Veillonellaceae'
p213
(lp214
F76168.82194116812
aF20327.78554186253
aF55874.25424506654
aF19774.011299435027
aF12820.51282051282
aF14832.16237314598
aF18010.291595197257
aF35460.00279212619
aF7530.593034201442
aF5061.68933881683
aF18923.848609211123
aF9409.969481180062
aF76057.71582293959
aF14749.262536873157
aF3523.6081747709654
aF58684.05453467694
aF58217.821782178224
aF67234.84848484848
aF147977.47055811572
aF56111.11111111111
aF64660.97889537495
aF76369.91226808573
aF45636.91073219659
aF48855.18448301006
aF54687.5
asS'k__Bacteria.p__SR1.p__SR1_c__L3.p__SR1_o__L4'
p215
(lp216
F0.0
aF0.0
aF0.0
aF0.0
aF0.0
aF0.0
aF0.0
aF0.0
aF1568.8735487919669
aF1581.7779183802595
aF0.0
aF0.0
aF0.0
aF0.0
aF0.0
aF0.0
aF0.0
aF0.0
aF0.0
aF0.0
aF0.0
aF0.0
aF0.0
aF0.0
aF0.0
asS'k__Bacteria.p__Proteobacteria.c__Betaproteobacteria.o__Burkholderiales.f__Burkholderiaceae'
p217
(lp218
F0.0
aF0.0
aF0.0
aF0.0
aF0.0
aF0.0
aF0.0
aF0.0
aF11923.43897081895
aF0.0
aF0.0
aF3560.528992878942
aF42064.07434580582
aF5478.297513695744
aF0.0
aF0.0
aF0.0
aF2840.909090909091
aF0.0
aF0.0
aF0.0
aF431.46843089313967
aF835.8408559010365
aF3208.400175003646
aF0.0
asS'k__Bacteria.p__Firmicutes.c__Clostridia.o__Clostridiales.f___Acidaminobacteraceae_.f___Acidaminobacteraceae__g__L6'
p219
(lp220
F0.0
aF0.0
aF0.0
aF0.0
aF0.0
aF0.0
aF0.0
aF0.0
aF0.0
aF0.0
aF0.0
aF0.0
aF1467.351430667645
aF0.0
aF0.0
aF0.0
aF0.0
aF0.0
aF0.0
aF0.0
aF0.0
aF0.0
aF0.0
aF0.0
aF0.0
asS'k__Bacteria.p__Proteobacteria.c__Gammaproteobacteria.o__Pseudomonadales'
p221
(lp222
F0.0
aF0.0
aF0.0
aF0.0
aF0.0
aF0.0
aF0.0
aF0.0
aF146532.7894571697
aF496045.5552040494
aF41039.671682626526
aF243896.23601220752
aF2201.0271460014674
aF128107.8803202697
aF29598.308668076108
aF5532.503457814661
aF0.0
aF0.0
aF0.0
aF0.0
aF0.0
aF0.0
aF0.0
aF0.0
aF0.0
asS'k__Bacteria.p__Proteobacteria.c__Betaproteobacteria.o__Burkholderiales.f__Alcaligenaceae.g__Alcaligenes'
p223
(lp224
F0.0
aF0.0
aF0.0
aF0.0
aF0.0
aF0.0
aF0.0
aF0.0
aF1255.0988390335735
aF0.0
aF0.0
aF0.0
aF0.0
aF0.0
aF0.0
aF0.0
aF0.0
aF0.0
aF0.0
aF0.0
aF0.0
aF0.0
aF0.0
aF0.0
aF0.0
asS'k__Bacteria.p__Bacteroidetes.c__Bacteroidia.o__Bacteroidales.f__Rikenellaceae.f__Rikenellaceae_g__L6'
p225
(lp226
F0.0
aF0.0
aF0.0
aF0.0
aF603.3182503770739
aF0.0
aF612.5949522175938
aF0.0
aF0.0
aF0.0
aF0.0
aF0.0
aF0.0
aF0.0
aF0.0
aF0.0
aF0.0
aF0.0
aF0.0
aF0.0
aF0.0
aF0.0
aF0.0
aF0.0
aF0.0
asS'k__Bacteria.p__Firmicutes.c__Bacilli.o__Lactobacillales.f__Carnobacteriaceae.g__Granulicatella'
p227
(lp228
F0.0
aF0.0
aF0.0
aF0.0
aF0.0
aF0.0
aF0.0
aF0.0
aF0.0
aF0.0
aF0.0
aF0.0
aF0.0
aF3792.6675094816687
aF0.0
aF0.0
aF0.0
aF0.0
aF0.0
aF0.0
aF0.0
aF0.0
aF0.0
aF0.0
aF0.0
asS'k__Bacteria.p__Bacteroidetes.c___Saprospirae_.o___Saprospirales_.f__Chitinophagaceae'
p229
(lp230
F0.0
aF0.0
aF0.0
aF0.0
aF0.0
aF0.0
aF0.0
aF0.0
aF7844.367743959834
aF4428.978171464727
aF1367.989056087551
aF2797.558494404883
aF0.0
aF0.0
aF0.0
aF0.0
aF0.0
aF0.0
aF0.0
aF0.0
aF0.0
aF0.0
aF0.0
aF0.0
aF0.0
asS'k__Bacteria.p__Bacteroidetes.c__Cytophagia'
p231
(lp232
F0.0
aF0.0
aF0.0
aF0.0
aF0.0
aF0.0
aF0.0
aF0.0
aF2510.197678067147
aF1898.1335020563115
aF1823.9854081167346
aF1780.264496439471
aF2445.5857177794082
aF0.0
aF0.0
aF0.0
aF0.0
aF0.0
aF0.0
aF0.0
aF0.0
aF0.0
aF0.0
aF0.0
aF0.0
asS'k__Bacteria.p__Spirochaetes.c__Spirochaetes.o__Spirochaetales.f__Spirochaetaceae'
p233
(lp234
F0.0
aF0.0
aF0.0
aF0.0
aF0.0
aF0.0
aF0.0
aF0.0
aF0.0
aF0.0
aF0.0
aF0.0
aF12961.604304230863
aF0.0
aF0.0
aF0.0
aF0.0
aF0.0
aF0.0
aF0.0
aF0.0
aF0.0
aF0.0
aF0.0
aF0.0
asS'k__Bacteria.p__Verrucomicrobia.c__Verrucomicrobiae.o__Verrucomicrobiales.f__Verrucomicrobiaceae'
p235
(lp236
F82705.69845104449
aF1143.4379367297672
aF3671.4089031665903
aF25808.93682588598
aF0.0
aF936.768149882904
aF367.5569713305562
aF0.0
aF0.0
aF0.0
aF0.0
aF762.970498474059
aF0.0
aF0.0
aF0.0
aF0.0
aF0.0
aF0.0
aF0.0
aF0.0
aF0.0
aF0.0
aF0.0
aF0.0
aF0.0
asS'k__Bacteria.p__Firmicutes.c__Clostridia.o__Clostridiales.f__Lachnospiraceae.g__Moryella'
p237
(lp238
F0.0
aF0.0
aF0.0
aF0.0
aF0.0
aF0.0
aF0.0
aF0.0
aF0.0
aF0.0
aF0.0
aF0.0
aF1711.9100024455856
aF0.0
aF0.0
aF790.3576368306659
aF3168.3168316831684
aF8049.242424242424
aF3072.1966205837175
aF3888.8888888888887
aF0.0
aF1438.2281029771323
aF0.0
aF2041.7092022750476
aF0.0
asS'k__Bacteria.p__Firmicutes.c__Erysipelotrichi.o__Erysipelotrichales.f__Erysipelotrichaceae.g__Holdemania'
p239
(lp240
F0.0
aF508.19463854656317
aF688.3891693437356
aF0.0
aF603.3182503770739
aF624.5120999219359
aF0.0
aF0.0
aF0.0
aF0.0
aF0.0
aF0.0
aF0.0
aF0.0
aF0.0
aF0.0
aF0.0
aF0.0
aF0.0
aF0.0
aF0.0
aF0.0
aF0.0
aF0.0
aF0.0
asS'k__Bacteria.p__Firmicutes.c__Erysipelotrichi'
p241
(lp242
F0.0
aF9147.503493838138
aF6080.770995869665
aF4237.28813559322
aF1809.9547511312219
aF2498.0483996877438
aF5023.278608184269
aF0.0
aF1882.6482585503604
aF6010.7560898449865
aF0.0
aF508.646998982706
aF2934.70286133529
aF0.0
aF0.0
aF395.17881841533296
aF1188.118811881188
aF0.0
aF1024.0655401945723
aF0.0
aF0.0
aF3739.3930677405438
aF1838.8498829822804
aF1166.6909727285986
aF0.0
asS'k__Bacteria.p__Firmicutes.c__Bacilli.o__Bacillales.f__Bacillaceae.f__Bacillaceae_x__L6'
p243
(lp244
F0.0
aF0.0
aF0.0
aF0.0
aF0.0
aF0.0
aF0.0
aF0.0
aF1568.8735487919669
aF0.0
aF0.0
aF0.0
aF0.0
aF0.0
aF0.0
aF0.0
aF0.0
aF0.0
aF0.0
aF0.0
aF0.0
aF0.0
aF0.0
aF0.0
aF0.0
asS'k__Bacteria.p__Actinobacteria.c__Thermoleophilia'
p245
(lp246
F0.0
aF0.0
aF0.0
aF0.0
aF0.0
aF0.0
aF0.0
aF0.0
aF2196.4229683087538
aF0.0
aF0.0
aF0.0
aF0.0
aF0.0
aF0.0
aF0.0
aF0.0
aF0.0
aF0.0
aF0.0
aF0.0
aF0.0
aF0.0
aF0.0
aF0.0
asS'k__Bacteria.p__Firmicutes.c__Clostridia.o__Clostridiales.f__Lachnospiraceae.g__Lachnospira'
p247
(lp248
F17336.9333522808
aF56790.75085757844
aF76411.19779715466
aF85259.37339496662
aF97737.55656108598
aF46994.53551912568
aF34917.91227640284
aF1814.882032667876
aF0.0
aF0.0
aF0.0
aF0.0
aF0.0
aF0.0
aF1409.4432699083864
aF0.0
aF0.0
aF0.0
aF0.0
aF0.0
aF0.0
aF0.0
aF0.0
aF0.0
aF0.0
asS'k__Bacteria.p__Actinobacteria.c__Coriobacteriia'
p249
(lp250
F0.0
aF0.0
aF0.0
aF0.0
aF0.0
aF468.384074941452
aF245.0379808870375
aF0.0
aF0.0
aF0.0
aF0.0
aF0.0
aF3668.378576669112
aF0.0
aF0.0
aF0.0
aF0.0
aF0.0
aF2560.1638504864313
aF0.0
aF0.0
aF1869.6965338702719
aF1170.1771982614512
aF729.1818579553741
aF0.0
asS'k__Bacteria.p__Firmicutes.c__Clostridia.o__Clostridiales.f___Tissierellaceae_.g__Finegoldia'
p251
(lp252
F0.0
aF0.0
aF0.0
aF0.0
aF0.0
aF0.0
aF0.0
aF1535.6694122574338
aF5020.395356134294
aF4428.978171464727
aF5927.952576379387
aF18311.291963377418
aF10760.577158229395
aF18541.930046354824
aF30303.030303030304
aF2173.4835012843314
aF0.0
aF0.0
aF0.0
aF0.0
aF0.0
aF0.0
aF0.0
aF0.0
aF0.0
asS'k__Bacteria.p__Proteobacteria.c__Alphaproteobacteria.o__Rhodospirillales.f__Rhodospirillaceae'
p253
(lp254
F0.0
aF0.0
aF0.0
aF0.0
aF0.0
aF0.0
aF0.0
aF0.0
aF0.0
aF949.0667510281557
aF0.0
aF762.970498474059
aF0.0
aF0.0
aF0.0
aF0.0
aF0.0
aF0.0
aF0.0
aF0.0
aF0.0
aF0.0
aF0.0
aF0.0
aF0.0
asS'k__Bacteria.p__Proteobacteria.c__Gammaproteobacteria.o__Aeromonadales.f__Succinivibrionaceae'
p255
(lp256
F0.0
aF0.0
aF0.0
aF0.0
aF0.0
aF0.0
aF0.0
aF0.0
aF941.3241292751802
aF0.0
aF0.0
aF0.0
aF0.0
aF0.0
aF0.0
aF0.0
aF0.0
aF0.0
aF0.0
aF0.0
aF0.0
aF0.0
aF0.0
aF0.0
aF0.0
asS'k__Bacteria.p__TM7.c__TM7_3.c__TM7_3_o__L4.c__TM7_3_f__L5.c__TM7_3_g__L6'
p257
(lp258
F0.0
aF0.0
aF0.0
aF0.0
aF0.0
aF0.0
aF0.0
aF0.0
aF0.0
aF0.0
aF0.0
aF0.0
aF0.0
aF0.0
aF0.0
aF0.0
aF0.0
aF0.0
aF0.0
aF0.0
aF0.0
aF287.64562059542646
aF0.0
aF0.0
aF0.0
asS'k__Bacteria.p__Bacteroidetes.c__Bacteroidia'
p259
(lp260
F665908.767940884
aF623046.6268580866
aF557480.495640202
aF598484.8484848485
aF533936.6515837105
aF608587.0413739266
aF633300.6616025484
aF686444.2272790729
aF55538.123627235625
aF28788.358114520728
aF57227.542179662545
aF16276.703967446592
aF155783.81022254832
aF18963.337547408344
aF35236.08174770966
aF64611.73681090694
aF190495.0495049505
aF88068.18181818181
aF397849.46236559143
aF76666.66666666667
aF117198.02424786707
aF366029.0522076802
aF60347.70979605484
aF53376.11200233338
aF74218.75
asS'k__Bacteria.p__Firmicutes.c__Clostridia.o__Clostridiales.f__Lachnospiraceae'
p261
(lp262
F86116.24271706694
aF166306.69546436283
aF227627.35199632857
aF187211.093990755
aF265158.3710407239
aF214519.90632318502
aF200931.14432737074
aF88929.21960072592
aF5334.1700658926875
aF5061.68933881683
aF2735.978112175102
aF4832.146490335707
aF18586.451455123504
aF0.0
aF9866.102889358703
aF19956.530329974314
aF8712.871287128713
aF19886.363636363636
aF13312.852022529443
aF9444.444444444445
aF9878.760664571173
aF17258.737235725588
aF18388.4988298228
aF28438.09246025959
aF15066.964285714284
asS'k__Bacteria.p__Proteobacteria.c__Alphaproteobacteria.o__Rhizobiales.f__Brucellaceae.f__Brucellaceae_x__L6'
p263
(lp264
F0.0
aF0.0
aF0.0
aF0.0
aF0.0
aF0.0
aF0.0
aF0.0
aF12237.213680577343
aF0.0
aF0.0
aF0.0
aF0.0
aF0.0
aF0.0
aF0.0
aF0.0
aF0.0
aF0.0
aF0.0
aF0.0
aF0.0
aF0.0
aF0.0
aF0.0
asS'k__Bacteria.p__Proteobacteria.c__Betaproteobacteria.o__Methylophilales.f__Methylophilaceae.g__Methylotenera'
p265
(lp266
F0.0
aF0.0
aF0.0
aF0.0
aF0.0
aF0.0
aF0.0
aF0.0
aF0.0
aF0.0
aF0.0
aF2034.587995930824
aF0.0
aF0.0
aF0.0
aF0.0
aF0.0
aF0.0
aF0.0
aF0.0
aF0.0
aF0.0
aF0.0
aF0.0
aF0.0
asS'k__Bacteria.p__Firmicutes.c__Bacilli.o__Lactobacillales.f__Aerococcaceae.g__Facklamia'
p267
(lp268
F0.0
aF0.0
aF0.0
aF0.0
aF0.0
aF0.0
aF0.0
aF0.0
aF0.0
aF0.0
aF0.0
aF1780.264496439471
aF0.0
aF0.0
aF0.0
aF0.0
aF0.0
aF0.0
aF0.0
aF0.0
aF0.0
aF0.0
aF0.0
aF0.0
aF0.0
asS'k__Bacteria.p__Proteobacteria.c__Betaproteobacteria.o__Burkholderiales.f__Alcaligenaceae'
p269
(lp270
F0.0
aF0.0
aF0.0
aF0.0
aF0.0
aF0.0
aF0.0
aF0.0
aF6589.268904926262
aF949.0667510281557
aF1139.990880072959
aF1525.940996948118
aF0.0
aF0.0
aF0.0
aF0.0
aF0.0
aF0.0
aF0.0
aF0.0
aF0.0
aF0.0
aF0.0
aF0.0
aF0.0
asS'k__Bacteria.p__Proteobacteria.c__Gammaproteobacteria.o__Vibrionales.f__Vibrionaceae.g__Vibrio'
p271
(lp272
F0.0
aF0.0
aF0.0
aF0.0
aF0.0
aF0.0
aF0.0
aF0.0
aF0.0
aF2214.4890857323635
aF0.0
aF0.0
aF0.0
aF0.0
aF0.0
aF0.0
aF0.0
aF0.0
aF0.0
aF0.0
aF0.0
aF0.0
aF0.0
aF0.0
aF0.0
asS'k__Bacteria.p__Firmicutes.c__Clostridia.o__Clostridiales.f__Ruminococcaceae.f__Ruminococcaceae_g__L6'
p273
(lp274
F0.0
aF2413.9245330961753
aF1491.5098669114273
aF0.0
aF0.0
aF2185.792349726776
aF13354.569958343543
aF2373.3072734887614
aF0.0
aF0.0
aF0.0
aF0.0
aF0.0
aF0.0
aF0.0
aF0.0
aF0.0
aF0.0
aF0.0
aF0.0
aF0.0
aF0.0
aF0.0
aF0.0
aF0.0
asS'k__Bacteria.p__Proteobacteria.c__Gammaproteobacteria.o__Aeromonadales.f__Aeromonadaceae.g__Oceanisphaera'
p275
(lp276
F0.0
aF0.0
aF0.0
aF0.0
aF0.0
aF0.0
aF0.0
aF0.0
aF4079.071226859114
aF0.0
aF0.0
aF0.0
aF0.0
aF0.0
aF0.0
aF0.0
aF0.0
aF0.0
aF0.0
aF0.0
aF0.0
aF0.0
aF0.0
aF0.0
aF0.0
asS'k__Bacteria.p__Firmicutes.c__Bacilli.o__Lactobacillales.f__Leuconostocaceae'
p277
(lp278
F0.0
aF0.0
aF0.0
aF0.0
aF0.0
aF0.0
aF0.0
aF0.0
aF0.0
aF632.7111673521038
aF0.0
aF1017.293997965412
aF0.0
aF0.0
aF0.0
aF0.0
aF0.0
aF0.0
aF0.0
aF0.0
aF0.0
aF0.0
aF0.0
aF0.0
aF0.0
asS'k__Bacteria.p__Proteobacteria.c__Gammaproteobacteria.o__Pasteurellales.f__Pasteurellaceae.f__Pasteurellaceae_g__L6'
p279
(lp280
F0.0
aF0.0
aF0.0
aF0.0
aF0.0
aF0.0
aF0.0
aF0.0
aF117665.51615939752
aF21195.824106295477
aF5699.954400364796
aF13224.821973550355
aF0.0
aF3371.2600084281503
aF9866.102889358703
aF0.0
aF0.0
aF0.0
aF0.0
aF0.0
aF0.0
aF0.0
aF0.0
aF0.0
aF0.0
asS'k__Bacteria.p__Fusobacteria.c__Fusobacteriia.o__Fusobacteriales.f__Fusobacteriaceae.f__Fusobacteriaceae_x__L6'
p281
(lp282
F0.0
aF0.0
aF0.0
aF0.0
aF0.0
aF0.0
aF0.0
aF0.0
aF6275.4941951678675
aF0.0
aF0.0
aF0.0
aF0.0
aF0.0
aF0.0
aF0.0
aF0.0
aF0.0
aF0.0
aF0.0
aF0.0
aF0.0
aF0.0
aF0.0
aF0.0
asS'k__Bacteria.p__Firmicutes.c__Clostridia.o__Clostridiales.f__Clostridiaceae.f__Clostridiaceae_g__L6'
p283
(lp284
F0.0
aF0.0
aF0.0
aF0.0
aF0.0
aF936.768149882904
aF0.0
aF0.0
aF0.0
aF0.0
aF0.0
aF0.0
aF0.0
aF0.0
aF0.0
aF0.0
aF0.0
aF0.0
aF0.0
aF0.0
aF0.0
aF0.0
aF0.0
aF0.0
aF0.0
asS'k__Bacteria.p__Firmicutes.c__Erysipelotrichi.o__Erysipelotrichales.f__Erysipelotrichaceae.g__Allobaculum'
p285
(lp286
F0.0
aF0.0
aF0.0
aF0.0
aF0.0
aF0.0
aF0.0
aF0.0
aF0.0
aF2530.844669408415
aF0.0
aF0.0
aF0.0
aF0.0
aF0.0
aF0.0
aF0.0
aF0.0
aF0.0
aF0.0
aF0.0
aF0.0
aF0.0
aF0.0
aF0.0
asS'k__Bacteria.p__Cyanobacteria.c__Chloroplast'
p287
(lp288
F0.0
aF0.0
aF0.0
aF0.0
aF0.0
aF0.0
aF0.0
aF0.0
aF54910.57420771885
aF37013.60329009807
aF1823.9854081167346
aF17039.67446592065
aF1711.9100024455856
aF16434.89254108723
aF33121.91684284708
aF1383.1258644536654
aF3168.3168316831684
aF0.0
aF0.0
aF0.0
aF118096.09339919174
aF0.0
aF0.0
aF0.0
aF0.0
asS'k__Bacteria.p__Proteobacteria.c__Alphaproteobacteria.o__Rhodobacterales.f__Rhodobacteraceae.g__Paracoccus'
p289
(lp290
F0.0
aF0.0
aF0.0
aF0.0
aF0.0
aF0.0
aF0.0
aF0.0
aF5647.944775651082
aF0.0
aF2735.978112175102
aF4323.499491353002
aF0.0
aF0.0
aF9161.38125440451
aF0.0
aF0.0
aF0.0
aF0.0
aF0.0
aF0.0
aF0.0
aF0.0
aF0.0
aF0.0
asS'k__Bacteria.p__Actinobacteria'
p291
(lp292
F0.0
aF0.0
aF0.0
aF0.0
aF0.0
aF468.384074941452
aF245.0379808870375
aF977.2441714365488
aF82208.97395669906
aF44606.13729832332
aF337209.3023255813
aF303407.9348931841
aF94644.1672780631
aF166034.5554150864
aF140239.6053558844
aF46235.921754593954
aF17425.742574257427
aF50662.878787878784
aF44546.8509984639
aF35555.555555555555
aF92501.12258643915
aF9348.482669351359
aF44299.56536275493
aF29896.456176170337
aF58035.71428571429
asS'k__Bacteria.p__Firmicutes.c__Erysipelotrichi.o__Erysipelotrichales.f__Erysipelotrichaceae'
p293
(lp294
F0.0
aF9147.503493838138
aF6080.770995869665
aF4237.28813559322
aF1809.9547511312219
aF2498.0483996877438
aF5023.278608184269
aF0.0
aF1882.6482585503604
aF6010.7560898449865
aF0.0
aF508.646998982706
aF2934.70286133529
aF0.0
aF0.0
aF395.17881841533296
aF1188.118811881188
aF0.0
aF1024.0655401945723
aF0.0
aF0.0
aF3739.3930677405438
aF1838.8498829822804
aF1166.6909727285986
aF0.0
asS'k__Bacteria.p__Cyanobacteria.c__Chloroplast.o__Chlorophyta.o__Chlorophyta_f__L5.o__Chlorophyta_g__L6'
p295
(lp296
F0.0
aF0.0
aF0.0
aF0.0
aF0.0
aF0.0
aF0.0
aF0.0
aF0.0
aF0.0
aF0.0
aF762.970498474059
aF0.0
aF0.0
aF0.0
aF0.0
aF0.0
aF0.0
aF0.0
aF0.0
aF0.0
aF0.0
aF0.0
aF0.0
aF0.0
asS'k__Bacteria.p__Firmicutes.c__Clostridia.o__Clostridiales.f___Tissierellaceae_'
p297
(lp298
F0.0
aF0.0
aF0.0
aF770.4160246533128
aF0.0
aF0.0
aF0.0
aF2652.519893899204
aF23219.32852212111
aF29421.069281872828
aF59051.52758777928
aF90284.8423194303
aF46710.68720958669
aF93131.05773282766
aF126849.89429175475
aF4346.967002568663
aF5148.514851485149
aF946.969696969697
aF0.0
aF0.0
aF898.069151324652
aF1006.7596720839925
aF668.6726847208292
aF291.67274318214965
aF0.0
asS'k__Bacteria.p__Proteobacteria.c__Alphaproteobacteria.o__Rhodobacterales.f__Rhodobacteraceae'
p299
(lp300
F0.0
aF0.0
aF0.0
aF0.0
aF0.0
aF0.0
aF0.0
aF0.0
aF5647.944775651082
aF1265.4223347042075
aF3419.9726402188776
aF4323.499491353002
aF0.0
aF0.0
aF11275.54615926709
aF0.0
aF0.0
aF0.0
aF0.0
aF0.0
aF0.0
aF0.0
aF0.0
aF0.0
aF0.0
asS'k__Bacteria.p__Bacteroidetes.c__Bacteroidia.o__Bacteroidales.f__Porphyromonadaceae.g__Porphyromonas'
p301
(lp302
F0.0
aF0.0
aF0.0
aF2439.6507447354907
aF0.0
aF0.0
aF0.0
aF977.2441714365488
aF19454.03200502039
aF6959.822840873142
aF2051.9835841313266
aF1525.940996948118
aF6847.6400097823425
aF3792.6675094816687
aF1409.4432699083864
aF5334.914048606995
aF1980.1980198019803
aF0.0
aF0.0
aF2222.222222222222
aF0.0
aF5033.798360419963
aF5349.381477766634
aF4812.600262505469
aF8370.535714285714
asS'k__Bacteria.p__Firmicutes'
p303
(lp304
F206622.14011652698
aF334646.1694829119
aF417163.83662230376
aF351566.5125834617
aF452187.0286576168
aF366276.34660421556
aF360328.3508943886
aF289822.69998603925
aF159397.5525572638
aF141094.59031951913
aF419516.643866849
aF244150.5595116989
aF362435.8033749083
aF509481.66877370415
aF567300.9161381257
aF238688.0063228611
aF228514.85148514854
aF341856.0606060606
aF314388.12083973375
aF315555.55555555556
aF313426.1338123036
aF204659.8590536459
aF219826.1451019726
aF152690.6810558553
aF219866.07142857142
asS'k__Bacteria.p__Actinobacteria.c__Actinobacteria.o__Actinomycetales.f__Propionibacteriaceae.g__Propionibacterium'
p305
(lp306
F0.0
aF0.0
aF0.0
aF0.0
aF0.0
aF0.0
aF0.0
aF0.0
aF2196.4229683087538
aF949.0667510281557
aF7067.943456452346
aF1780.264496439471
aF8559.550012227928
aF7585.3350189633375
aF21846.370683579986
aF0.0
aF0.0
aF0.0
aF0.0
aF0.0
aF0.0
aF0.0
aF0.0
aF0.0
aF0.0
asS'k__Bacteria'
p307
(lp308
F1000000.0
aF1000000.0
aF1000000.0
aF1000000.0
aF1000000.0
aF1000000.0
aF1000000.0
aF1000000.0
aF1000000.0
aF1000000.0
aF1000000.0
aF1000000.0
aF1000000.0
aF1000000.0
aF1000000.0
aF1000000.0
aF1000000.0
aF1000000.0
aF1000000.0
aF1000000.0
aF1000000.0
aF1000000.0
aF1000000.0
aF1000000.0
aF1000000.0
asS'k__Bacteria.p__Bacteroidetes.c__Sphingobacteriia.o__Sphingobacteriales.f__Sphingobacteriaceae.g__Pedobacter'
p309
(lp310
F0.0
aF0.0
aF0.0
aF0.0
aF0.0
aF0.0
aF0.0
aF0.0
aF14119.861939127704
aF53464.09364125277
aF1595.9872321021428
aF0.0
aF0.0
aF5899.705014749263
aF6342.494714587738
aF0.0
aF0.0
aF0.0
aF0.0
aF0.0
aF0.0
aF0.0
aF0.0
aF0.0
aF0.0
asS'k__Bacteria.p___Thermi_.c__Deinococci.o__Deinococcales.f__Deinococcaceae'
p311
(lp312
F0.0
aF0.0
aF0.0
aF0.0
aF0.0
aF0.0
aF0.0
aF0.0
aF0.0
aF0.0
aF1595.9872321021428
aF1271.617497456765
aF0.0
aF0.0
aF0.0
aF0.0
aF0.0
aF0.0
aF0.0
aF0.0
aF0.0
aF0.0
aF0.0
aF0.0
aF0.0
asS'k__Bacteria.p__Bacteroidetes.c__Bacteroidia.o__Bacteroidales.o__Bacteroidales_x__L5'
p313
(lp314
F0.0
aF0.0
aF0.0
aF0.0
aF4374.057315233786
aF7806.401249024199
aF7106.101445724087
aF0.0
aF0.0
aF0.0
aF0.0
aF0.0
aF0.0
aF0.0
aF0.0
aF0.0
aF0.0
aF0.0
aF0.0
aF0.0
aF0.0
aF0.0
aF0.0
aF0.0
aF0.0
asS'k__Bacteria.p___Thermi_'
p315
(lp316
F0.0
aF0.0
aF0.0
aF0.0
aF0.0
aF0.0
aF0.0
aF0.0
aF0.0
aF0.0
aF1595.9872321021428
aF1271.617497456765
aF0.0
aF0.0
aF0.0
aF0.0
aF0.0
aF0.0
aF0.0
aF0.0
aF0.0
aF0.0
aF0.0
aF0.0
aF0.0
asS'k__Bacteria.p__Firmicutes.c__Clostridia.o__Clostridiales.f__Veillonellaceae.f__Veillonellaceae_g__L6'
p317
(lp318
F0.0
aF889.3406174564857
aF803.1206975676915
aF0.0
aF0.0
aF0.0
aF0.0
aF0.0
aF0.0
aF0.0
aF0.0
aF0.0
aF0.0
aF0.0
aF0.0
aF0.0
aF0.0
aF0.0
aF0.0
aF0.0
aF0.0
aF0.0
aF0.0
aF0.0
aF0.0
asS'k__Bacteria.p__Proteobacteria.c__Gammaproteobacteria.o__Pseudomonadales.f__Moraxellaceae.g__Moraxella'
p319
(lp320
F0.0
aF0.0
aF0.0
aF0.0
aF0.0
aF0.0
aF0.0
aF0.0
aF33573.89394414809
aF6959.822840873142
aF0.0
aF2797.558494404883
aF0.0
aF0.0
aF0.0
aF0.0
aF0.0
aF0.0
aF0.0
aF0.0
aF0.0
aF0.0
aF0.0
aF0.0
aF0.0
asS'k__Bacteria.p__Proteobacteria.c__Gammaproteobacteria.o__Cardiobacteriales.f__Cardiobacteriaceae.f__Cardiobacteriaceae_g__L6'
p321
(lp322
F0.0
aF0.0
aF0.0
aF0.0
aF0.0
aF0.0
aF0.0
aF0.0
aF1568.8735487919669
aF0.0
aF0.0
aF0.0
aF0.0
aF0.0
aF0.0
aF0.0
aF0.0
aF0.0
aF0.0
aF0.0
aF0.0
aF0.0
aF0.0
aF0.0
aF0.0
asS'k__Bacteria.p__FBP.p__FBP_c__L3'
p323
(lp324
F0.0
aF0.0
aF0.0
aF0.0
aF0.0
aF0.0
aF0.0
aF0.0
aF0.0
aF0.0
aF455.99635202918364
aF0.0
aF0.0
aF0.0
aF0.0
aF0.0
aF0.0
aF0.0
aF0.0
aF0.0
aF0.0
aF0.0
aF0.0
aF0.0
aF0.0
asS'k__Bacteria.p__Chloroflexi.c__Ellin6529'
p325
(lp326
F0.0
aF0.0
aF0.0
aF0.0
aF0.0
aF0.0
aF0.0
aF0.0
aF941.3241292751802
aF0.0
aF0.0
aF0.0
aF0.0
aF0.0
aF0.0
aF0.0
aF0.0
aF0.0
aF0.0
aF0.0
aF0.0
aF0.0
aF0.0
aF0.0
aF0.0
asS'k__Bacteria.p__Verrucomicrobia.c___Pedosphaerae_.o___Pedosphaerales_'
p327
(lp328
F0.0
aF0.0
aF0.0
aF0.0
aF0.0
aF0.0
aF0.0
aF0.0
aF0.0
aF0.0
aF0.0
aF0.0
aF0.0
aF0.0
aF1409.4432699083864
aF0.0
aF0.0
aF0.0
aF0.0
aF0.0
aF0.0
aF0.0
aF0.0
aF0.0
aF0.0
asS'k__Bacteria.p__Actinobacteria.c__Actinobacteria.o__Bifidobacteriales.f__Bifidobacteriaceae.g__Scardovia'
p329
(lp330
F0.0
aF0.0
aF0.0
aF0.0
aF0.0
aF0.0
aF0.0
aF0.0
aF0.0
aF0.0
aF0.0
aF0.0
aF1467.351430667645
aF0.0
aF0.0
aF0.0
aF0.0
aF0.0
aF0.0
aF0.0
aF0.0
aF0.0
aF0.0
aF0.0
aF0.0
asS'k__Bacteria.p__Bacteroidetes.c__Cytophagia.o__Cytophagales.f__Cytophagaceae.g__Adhaeribacter'
p331
(lp332
F0.0
aF0.0
aF0.0
aF0.0
aF0.0
aF0.0
aF0.0
aF0.0
aF0.0
aF0.0
aF683.9945280437755
aF0.0
aF0.0
aF0.0
aF0.0
aF0.0
aF0.0
aF0.0
aF0.0
aF0.0
aF0.0
aF0.0
aF0.0
aF0.0
aF0.0
asS'k__Bacteria.p__Firmicutes.c__Erysipelotrichi.o__Erysipelotrichales.f__Erysipelotrichaceae.g___Eubacterium_'
p333
(lp334
F0.0
aF0.0
aF0.0
aF0.0
aF0.0
aF0.0
aF0.0
aF0.0
aF0.0
aF1581.7779183802595
aF0.0
aF0.0
aF0.0
aF0.0
aF0.0
aF0.0
aF0.0
aF0.0
aF0.0
aF0.0
aF0.0
aF0.0
aF0.0
aF0.0
aF0.0
asS'k__Bacteria.p__Bacteroidetes.c__Bacteroidia.o__Bacteroidales.f___Barnesiellaceae_.f___Barnesiellaceae__g__L6'
p335
(lp336
F0.0
aF0.0
aF0.0
aF0.0
aF1809.9547511312219
aF1717.408274785324
aF735.1139426611124
aF0.0
aF0.0
aF0.0
aF0.0
aF0.0
aF0.0
aF0.0
aF0.0
aF0.0
aF0.0
aF0.0
aF0.0
aF0.0
aF0.0
aF0.0
aF0.0
aF0.0
aF0.0
asS'k__Bacteria.p__Proteobacteria.c__Betaproteobacteria.c__Betaproteobacteria_x__L4.c__Betaproteobacteria_x__L5'
p337
(lp338
F0.0
aF0.0
aF0.0
aF0.0
aF0.0
aF0.0
aF0.0
aF0.0
aF0.0
aF0.0
aF0.0
aF0.0
aF4402.054292002935
aF0.0
aF0.0
aF0.0
aF0.0
aF0.0
aF0.0
aF0.0
aF0.0
aF0.0
aF0.0
aF0.0
aF0.0
asS'k__Bacteria.p__Proteobacteria.c__Epsilonproteobacteria.o__Campylobacterales'
p339
(lp340
F0.0
aF0.0
aF0.0
aF0.0
aF0.0
aF0.0
aF0.0
aF0.0
aF3137.7470975839337
aF0.0
aF911.9927040583673
aF1017.293997965412
aF16629.982880899977
aF3371.2600084281503
aF2114.1649048625795
aF6718.03991306066
aF7128.712871287129
aF17992.424242424244
aF10752.688172043012
aF4444.444444444444
aF4490.34575662326
aF15389.040701855314
aF5182.213306586426
aF10646.055126148462
aF3906.25
asS'k__Bacteria.p__Firmicutes.c__Bacilli.o__Turicibacterales.f__Turicibacteraceae.g__Turicibacter'
p341
(lp342
F0.0
aF381.1459789099224
aF0.0
aF0.0
aF0.0
aF0.0
aF0.0
aF0.0
aF0.0
aF0.0
aF0.0
aF0.0
aF0.0
aF0.0
aF0.0
aF0.0
aF0.0
aF0.0
aF0.0
aF0.0
aF0.0
aF0.0
aF0.0
aF0.0
aF0.0
asS'k__Bacteria.p__Proteobacteria.c__Gammaproteobacteria.o__Vibrionales'
p343
(lp344
F0.0
aF0.0
aF0.0
aF0.0
aF0.0
aF0.0
aF0.0
aF0.0
aF0.0
aF2214.4890857323635
aF0.0
aF0.0
aF0.0
aF0.0
aF0.0
aF0.0
aF0.0
aF0.0
aF0.0
aF0.0
aF0.0
aF0.0
aF0.0
aF0.0
aF0.0
asS'k__Bacteria.p__Firmicutes.c__Clostridia.o__Clostridiales.f__Lachnospiraceae.g__Blautia'
p345
(lp346
F8810.572687224672
aF17659.763689493073
aF32698.48554382744
aF19388.80328710837
aF4374.057315233786
aF4059.3286494925837
aF8453.810340602793
aF8655.591232723717
aF4706.620646375901
aF0.0
aF0.0
aF1780.264496439471
aF0.0
aF0.0
aF6342.494714587738
aF0.0
aF0.0
aF0.0
aF0.0
aF0.0
aF0.0
aF0.0
aF0.0
aF0.0
aF0.0
asS'k__Bacteria.p__Proteobacteria.c__Gammaproteobacteria.o__Cardiobacteriales'
p347
(lp348
F0.0
aF0.0
aF0.0
aF0.0
aF0.0
aF0.0
aF0.0
aF0.0
aF1568.8735487919669
aF0.0
aF0.0
aF0.0
aF8804.10858400587
aF0.0
aF0.0
aF0.0
aF0.0
aF0.0
aF0.0
aF0.0
aF0.0
aF0.0
aF0.0
aF0.0
aF0.0
asS'k__Bacteria.p__Chloroflexi.c__Ellin6529.c__Ellin6529_o__L4.c__Ellin6529_f__L5.c__Ellin6529_g__L6'
p349
(lp350
F0.0
aF0.0
aF0.0
aF0.0
aF0.0
aF0.0
aF0.0
aF0.0
aF941.3241292751802
aF0.0
aF0.0
aF0.0
aF0.0
aF0.0
aF0.0
aF0.0
aF0.0
aF0.0
aF0.0
aF0.0
aF0.0
aF0.0
aF0.0
aF0.0
aF0.0
asS'k__Bacteria.p__Proteobacteria.c__Betaproteobacteria.o__Burkholderiales.f__Comamonadaceae.g__Pelomonas'
p351
(lp352
F0.0
aF0.0
aF0.0
aF0.0
aF0.0
aF0.0
aF0.0
aF0.0
aF0.0
aF9490.667510281557
aF0.0
aF0.0
aF0.0
aF0.0
aF0.0
aF0.0
aF0.0
aF0.0
aF0.0
aF0.0
aF0.0
aF0.0
aF0.0
aF0.0
aF0.0
asS'k__Bacteria.p__Proteobacteria.c__Gammaproteobacteria.o__Pasteurellales.f__Pasteurellaceae.f__Pasteurellaceae_x__L6'
p353
(lp354
F0.0
aF0.0
aF0.0
aF0.0
aF0.0
aF0.0
aF0.0
aF0.0
aF15374.960778161276
aF0.0
aF0.0
aF0.0
aF0.0
aF0.0
aF0.0
aF0.0
aF0.0
aF0.0
aF0.0
aF0.0
aF0.0
aF0.0
aF0.0
aF0.0
aF0.0
asS'k__Bacteria.p__Firmicutes.c__Clostridia.o__Clostridiales.o__Clostridiales_f__L5'
p355
(lp356
F0.0
aF0.0
aF3441.9458467186782
aF0.0
aF2262.4434389140274
aF0.0
aF4655.721636853712
aF2373.3072734887614
aF0.0
aF2530.844669408415
aF3191.9744642042856
aF3560.528992878942
aF3912.9371484470535
aF0.0
aF0.0
aF1778.3046828689983
aF0.0
aF1420.4545454545455
aF0.0
aF0.0
aF0.0
aF1725.8737235725587
aF2006.0180541624877
aF875.0182295464489
aF1116.0714285714284
asS'k__Bacteria.p__Proteobacteria.c__Betaproteobacteria.o__Burkholderiales.o__Burkholderiales_x__L5.o__Burkholderiales_x__L6'
p357
(lp358
F0.0
aF10926.18472875111
aF13653.051858650757
aF4494.093477144324
aF7239.8190045248875
aF12334.113973458236
aF0.0
aF0.0
aF0.0
aF0.0
aF0.0
aF0.0
aF0.0
aF0.0
aF0.0
aF0.0
aF0.0
aF0.0
aF0.0
aF0.0
aF0.0
aF0.0
aF0.0
aF0.0
aF0.0
asS'k__Bacteria.p__Firmicutes.c__Clostridia.o__Clostridiales.f__Veillonellaceae.g__Megamonas'
p359
(lp360
F0.0
aF0.0
aF0.0
aF0.0
aF0.0
aF0.0
aF0.0
aF0.0
aF3451.5218073423275
aF5061.68933881683
aF0.0
aF0.0
aF0.0
aF4635.482511588706
aF0.0
aF0.0
aF0.0
aF0.0
aF0.0
aF0.0
aF0.0
aF0.0
aF0.0
aF0.0
aF0.0
asS'k__Bacteria.p__Actinobacteria.c__Actinobacteria.o__Actinomycetales.f__Geodermatophilaceae'
p361
(lp362
F0.0
aF0.0
aF0.0
aF0.0
aF0.0
aF0.0
aF0.0
aF0.0
aF5020.395356134294
aF0.0
aF0.0
aF0.0
aF0.0
aF0.0
aF2818.8865398167727
aF0.0
aF0.0
aF0.0
aF0.0
aF0.0
aF0.0
aF0.0
aF0.0
aF0.0
aF0.0
asS'k__Bacteria.p__Bacteroidetes.c__Bacteroidia.o__Bacteroidales.f___Paraprevotellaceae_'
p363
(lp364
F16768.50930794373
aF9782.746792021342
aF34304.72693896283
aF4879.301489470981
aF0.0
aF0.0
aF0.0
aF0.0
aF13806.087229369308
aF8857.956342929454
aF23027.815777473774
aF4069.175991861648
aF27879.67718268525
aF9270.965023177412
aF4933.051444679351
aF2766.2517289073307
aF1584.1584158415842
aF5208.333333333333
aF22017.409114183305
aF0.0
aF1347.103726986978
aF82122.82467999426
aF7188.231360748914
aF2187.545573866122
aF0.0
asS'k__Bacteria.p__Proteobacteria.c__Betaproteobacteria.c__Betaproteobacteria_x__L4.c__Betaproteobacteria_x__L5.c__Betaproteobacteria_x__L6'
p365
(lp366
F0.0
aF0.0
aF0.0
aF0.0
aF0.0
aF0.0
aF0.0
aF0.0
aF0.0
aF0.0
aF0.0
aF0.0
aF4402.054292002935
aF0.0
aF0.0
aF0.0
aF0.0
aF0.0
aF0.0
aF0.0
aF0.0
aF0.0
aF0.0
aF0.0
aF0.0
asS'k__Bacteria.k__Bacteria_x__L2.k__Bacteria_x__L3.k__Bacteria_x__L4.k__Bacteria_x__L5.k__Bacteria_x__L6'
p367
(lp368
F0.0
aF0.0
aF0.0
aF0.0
aF0.0
aF0.0
aF0.0
aF0.0
aF15688.735487919668
aF16134.134767478647
aF2279.981760145918
aF6358.087487283826
aF0.0
aF842.8150021070376
aF7047.216349541931
aF0.0
aF0.0
aF0.0
aF0.0
aF0.0
aF0.0
aF0.0
aF0.0
aF0.0
aF0.0
asS'k__Bacteria.p__Proteobacteria.c__Gammaproteobacteria.o__Pseudomonadales.f__Moraxellaceae.g__Perlucidibaca'
p369
(lp370
F0.0
aF0.0
aF0.0
aF0.0
aF0.0
aF0.0
aF0.0
aF0.0
aF1882.6482585503604
aF0.0
aF0.0
aF0.0
aF0.0
aF0.0
aF0.0
aF0.0
aF0.0
aF0.0
aF0.0
aF0.0
aF0.0
aF0.0
aF0.0
aF0.0
aF0.0
asS'k__Bacteria.p__Proteobacteria.p__Proteobacteria_x__L3.p__Proteobacteria_x__L4.p__Proteobacteria_x__L5'
p371
(lp372
F0.0
aF0.0
aF0.0
aF0.0
aF0.0
aF0.0
aF0.0
aF0.0
aF941.3241292751802
aF0.0
aF0.0
aF0.0
aF0.0
aF0.0
aF0.0
aF0.0
aF0.0
aF0.0
aF0.0
aF0.0
aF0.0
aF0.0
aF0.0
aF0.0
aF0.0
asS'k__Bacteria.p__Actinobacteria.c__Actinobacteria.o__Actinomycetales.f__Micrococcaceae'
p373
(lp374
F0.0
aF0.0
aF0.0
aF0.0
aF0.0
aF0.0
aF0.0
aF0.0
aF11609.664261060554
aF5061.68933881683
aF18467.852257181938
aF2797.558494404883
aF9048.66715578381
aF9270.965023177412
aF8456.659619450318
aF35170.91483896463
aF12277.227722772277
aF39299.242424242424
aF23041.474654377882
aF35555.555555555555
aF79928.15446789403
aF5465.266791313103
aF37445.67034436644
aF15750.32813183608
aF58035.71428571429
asS'k__Bacteria.p__Proteobacteria.c__Betaproteobacteria.o__Neisseriales'
p375
(lp376
F0.0
aF0.0
aF0.0
aF642.0133538777607
aF0.0
aF0.0
aF0.0
aF0.0
aF44242.23407593347
aF15501.423600126544
aF24851.80118559051
aF12970.498474059003
aF57226.70579603815
aF50990.30762747577
aF33121.91684284708
aF236712.11223078443
aF189702.9702970297
aF224431.81818181818
aF43522.785458269325
aF282777.7777777778
aF8082.622361921869
aF192866.3886092334
aF288365.0952858576
aF514510.7189733119
aF248883.92857142858
asS'k__Bacteria.p__Firmicutes.c__Clostridia.o__Clostridiales.f__Ruminococcaceae.g__Oscillospira'
p377
(lp378
F12931.647008668468
aF12704.86596366408
aF15259.29325378614
aF9630.20030816641
aF29411.764705882353
aF40749.41451990632
aF24626.317079147266
aF39229.37316766717
aF0.0
aF0.0
aF0.0
aF1780.264496439471
aF0.0
aF0.0
aF1409.4432699083864
aF0.0
aF0.0
aF0.0
aF0.0
aF0.0
aF0.0
aF0.0
aF0.0
aF0.0
aF0.0
asS'k__Bacteria.p__TM7.c__TM7_3.c__TM7_3_o__L4'
p379
(lp380
F0.0
aF0.0
aF0.0
aF0.0
aF0.0
aF0.0
aF0.0
aF0.0
aF0.0
aF0.0
aF0.0
aF0.0
aF0.0
aF0.0
aF0.0
aF0.0
aF0.0
aF0.0
aF0.0
aF0.0
aF0.0
aF287.64562059542646
aF0.0
aF0.0
aF0.0
asS'k__Bacteria.p__Firmicutes.c__Clostridia.o__Clostridiales.f__Clostridiaceae.g__Clostridium'
p381
(lp382
F0.0
aF2159.827213822894
aF1032.5837540156035
aF4750.898818695429
aF2111.6138763197587
aF936.768149882904
aF2327.860818426856
aF0.0
aF5961.719485409475
aF6959.822840873142
aF2735.978112175102
aF0.0
aF0.0
aF0.0
aF1409.4432699083864
aF0.0
aF0.0
aF0.0
aF0.0
aF0.0
aF0.0
aF0.0
aF0.0
aF0.0
aF0.0
asS'k__Bacteria.p__Proteobacteria.c__Gammaproteobacteria.o__Alteromonadales'
p383
(lp384
F0.0
aF0.0
aF0.0
aF0.0
aF0.0
aF0.0
aF0.0
aF0.0
aF1255.0988390335735
aF0.0
aF0.0
aF0.0
aF0.0
aF0.0
aF0.0
aF0.0
aF0.0
aF0.0
aF0.0
aF0.0
aF0.0
aF0.0
aF0.0
aF0.0
aF0.0
asS'k__Bacteria.p__Firmicutes.c__Clostridia.o__Clostridiales.f__Veillonellaceae.g__Megasphaera'
p385
(lp386
F0.0
aF0.0
aF0.0
aF0.0
aF0.0
aF0.0
aF0.0
aF0.0
aF0.0
aF0.0
aF0.0
aF0.0
aF3423.8200048911713
aF0.0
aF0.0
aF0.0
aF0.0
aF0.0
aF0.0
aF0.0
aF0.0
aF0.0
aF0.0
aF0.0
aF0.0
asS'k__Bacteria.p__Firmicutes.c__Bacilli.o__Lactobacillales.f__Leuconostocaceae.g__Weissella'
p387
(lp388
F0.0
aF0.0
aF0.0
aF0.0
aF0.0
aF0.0
aF0.0
aF0.0
aF0.0
aF632.7111673521038
aF0.0
aF1017.293997965412
aF0.0
aF0.0
aF0.0
aF0.0
aF0.0
aF0.0
aF0.0
aF0.0
aF0.0
aF0.0
aF0.0
aF0.0
aF0.0
asS'k__Bacteria.p__Proteobacteria.c__Betaproteobacteria.o__Burkholderiales.f__Alcaligenaceae.g__Oligella'
p389
(lp390
F0.0
aF0.0
aF0.0
aF0.0
aF0.0
aF0.0
aF0.0
aF0.0
aF0.0
aF949.0667510281557
aF1139.990880072959
aF1525.940996948118
aF0.0
aF0.0
aF0.0
aF0.0
aF0.0
aF0.0
aF0.0
aF0.0
aF0.0
aF0.0
aF0.0
aF0.0
aF0.0
asS'k__Bacteria.p__Synergistetes'
p391
(lp392
F0.0
aF0.0
aF0.0
aF0.0
aF0.0
aF0.0
aF0.0
aF0.0
aF0.0
aF0.0
aF0.0
aF0.0
aF9293.22572756175
aF0.0
aF0.0
aF0.0
aF0.0
aF0.0
aF0.0
aF0.0
aF0.0
aF0.0
aF0.0
aF0.0
aF0.0
asS'k__Bacteria.p__Firmicutes.c__Clostridia.o__Clostridiales.o__Clostridiales_x__L5.o__Clostridiales_x__L6'
p393
(lp394
F4973.710387949411
aF3303.265150552661
aF1835.7044515832952
aF5136.106831022085
aF4223.227752639517
aF2966.432474629196
aF0.0
aF6142.677649029735
aF627.5494195167868
aF0.0
aF683.9945280437755
aF0.0
aF0.0
aF0.0
aF1409.4432699083864
aF0.0
aF0.0
aF0.0
aF0.0
aF0.0
aF0.0
aF0.0
aF0.0
aF0.0
aF0.0
asS'k__Bacteria.k__Bacteria_x__L2.k__Bacteria_x__L3.k__Bacteria_x__L4'
p395
(lp396
F0.0
aF0.0
aF0.0
aF0.0
aF0.0
aF0.0
aF0.0
aF0.0
aF15688.735487919668
aF16134.134767478647
aF2279.981760145918
aF6358.087487283826
aF0.0
aF842.8150021070376
aF7047.216349541931
aF0.0
aF0.0
aF0.0
aF0.0
aF0.0
aF0.0
aF0.0
aF0.0
aF0.0
aF0.0
asS'k__Bacteria.p__Proteobacteria.c__Epsilonproteobacteria.o__Campylobacterales.f__Campylobacteraceae'
p397
(lp398
F0.0
aF0.0
aF0.0
aF0.0
aF0.0
aF0.0
aF0.0
aF0.0
aF3137.7470975839337
aF0.0
aF911.9927040583673
aF1017.293997965412
aF16629.982880899977
aF3371.2600084281503
aF2114.1649048625795
aF6718.03991306066
aF7128.712871287129
aF17992.424242424244
aF10752.688172043012
aF4444.444444444444
aF4490.34575662326
aF15389.040701855314
aF5182.213306586426
aF10646.055126148462
aF3906.25
asS'k__Bacteria.p__Actinobacteria.c__Actinobacteria.o__Actinomycetales.f__Geodermatophilaceae.g__Blastococcus'
p399
(lp400
F0.0
aF0.0
aF0.0
aF0.0
aF0.0
aF0.0
aF0.0
aF0.0
aF5020.395356134294
aF0.0
aF0.0
aF0.0
aF0.0
aF0.0
aF2818.8865398167727
aF0.0
aF0.0
aF0.0
aF0.0
aF0.0
aF0.0
aF0.0
aF0.0
aF0.0
aF0.0
asS'k__Bacteria.p__Actinobacteria.c__Actinobacteria.o__Actinomycetales.f__Corynebacteriaceae.g__Corynebacterium'
p401
(lp402
F0.0
aF0.0
aF0.0
aF0.0
aF0.0
aF0.0
aF0.0
aF977.2441714365488
aF51459.05240037652
aF33533.6918696615
aF311673.506611947
aF293997.9654120041
aF69699.19295671313
aF145385.58786346397
aF107117.68851303736
aF5730.0928670223275
aF0.0
aF1420.4545454545455
aF0.0
aF0.0
aF0.0
aF0.0
aF0.0
aF0.0
aF0.0
asS'k__Bacteria.p__Cyanobacteria.c__Chloroplast.o__Streptophyta.o__Streptophyta_f__L5'
p403
(lp404
F0.0
aF0.0
aF0.0
aF0.0
aF0.0
aF0.0
aF0.0
aF0.0
aF53969.25007844366
aF37013.60329009807
aF1823.9854081167346
aF16276.703967446592
aF1711.9100024455856
aF16434.89254108723
aF33121.91684284708
aF1383.1258644536654
aF3168.3168316831684
aF0.0
aF0.0
aF0.0
aF118096.09339919174
aF0.0
aF0.0
aF0.0
aF0.0
asS'k__Bacteria.p__Proteobacteria.c__Alphaproteobacteria.o__Rhodospirillales.f__Acetobacteraceae.f__Acetobacteraceae_g__L6'
p405
(lp406
F0.0
aF0.0
aF0.0
aF0.0
aF0.0
aF0.0
aF0.0
aF0.0
aF0.0
aF0.0
aF455.99635202918364
aF0.0
aF0.0
aF0.0
aF0.0
aF0.0
aF0.0
aF0.0
aF0.0
aF0.0
aF0.0
aF0.0
aF0.0
aF0.0
aF0.0
asS'k__Bacteria.p__Firmicutes.c__Clostridia.o__Clostridiales.f___Mogibacteriaceae_.f___Mogibacteriaceae__g__L6'
p407
(lp408
F0.0
aF0.0
aF0.0
aF0.0
aF452.48868778280547
aF780.64012490242
aF490.075961774075
aF0.0
aF1255.0988390335735
aF0.0
aF0.0
aF508.646998982706
aF8804.10858400587
aF0.0
aF0.0
aF1580.7152736613318
aF3960.3960396039606
aF0.0
aF3584.2293906810037
aF0.0
aF0.0
aF0.0
aF0.0
aF1166.6909727285986
aF0.0
asS'k__Bacteria.p__Proteobacteria.c__Alphaproteobacteria.o__Rickettsiales'
p409
(lp410
F0.0
aF0.0
aF0.0
aF0.0
aF0.0
aF0.0
aF0.0
aF0.0
aF13178.537809852523
aF13286.934514394181
aF0.0
aF22889.114954221768
aF0.0
aF14327.855035819637
aF7047.216349541931
aF395.17881841533296
aF0.0
aF0.0
aF0.0
aF0.0
aF23798.83251010328
aF0.0
aF0.0
aF0.0
aF0.0
asS'k__Bacteria.p__Firmicutes.c__Clostridia.o__Clostridiales'
p411
(lp412
F202358.9597839989
aF325117.52001016383
aF410509.4079853144
aF347329.22444786853
aF450377.07390648563
aF362373.1459797034
aF353099.730458221
aF289822.69998603925
aF48948.85472230938
aF57576.71622904144
aF88691.29046967618
aF111393.69277721261
aF164832.47737833209
aF112094.39528023599
aF157152.92459478506
aF87927.28709741156
aF76039.60396039605
aF91382.57575757575
aF168458.78136200717
aF65555.55555555556
aF75437.80871127077
aF96361.28289946786
aF69207.62286860583
aF83710.07729327696
aF71986.60714285713
asS'k__Bacteria.p__Firmicutes.c__Erysipelotrichi.o__Erysipelotrichales'
p413
(lp414
F0.0
aF9147.503493838138
aF6080.770995869665
aF4237.28813559322
aF1809.9547511312219
aF2498.0483996877438
aF5023.278608184269
aF0.0
aF1882.6482585503604
aF6010.7560898449865
aF0.0
aF508.646998982706
aF2934.70286133529
aF0.0
aF0.0
aF395.17881841533296
aF1188.118811881188
aF0.0
aF1024.0655401945723
aF0.0
aF0.0
aF3739.3930677405438
aF1838.8498829822804
aF1166.6909727285986
aF0.0
asS'k__Bacteria.p__Actinobacteria.c__Actinobacteria.o__Actinomycetales.f__Actinomycetaceae'
p415
(lp416
F0.0
aF0.0
aF0.0
aF0.0
aF0.0
aF0.0
aF0.0
aF0.0
aF0.0
aF0.0
aF0.0
aF0.0
aF1711.9100024455856
aF0.0
aF0.0
aF5334.914048606995
aF5148.514851485149
aF9943.181818181818
aF18945.212493599593
aF0.0
aF12572.968118545126
aF2013.519344167985
aF5683.717820127048
aF13416.946186378884
aF0.0
asS'k__Bacteria.p___Thermi_.c__Deinococci.o__Deinococcales'
p417
(lp418
F0.0
aF0.0
aF0.0
aF0.0
aF0.0
aF0.0
aF0.0
aF0.0
aF0.0
aF0.0
aF1595.9872321021428
aF1271.617497456765
aF0.0
aF0.0
aF0.0
aF0.0
aF0.0
aF0.0
aF0.0
aF0.0
aF0.0
aF0.0
aF0.0
aF0.0
aF0.0
asS'k__Bacteria.p__Bacteroidetes.c__Bacteroidia.o__Bacteroidales.f___Odoribacteraceae_.g__Butyricimonas'
p419
(lp420
F0.0
aF0.0
aF0.0
aF0.0
aF2262.4434389140274
aF2654.176424668228
aF1592.7468757657437
aF0.0
aF0.0
aF0.0
aF0.0
aF0.0
aF0.0
aF0.0
aF0.0
aF0.0
aF0.0
aF0.0
aF0.0
aF0.0
aF0.0
aF0.0
aF0.0
aF0.0
aF0.0
asS'k__Bacteria.p__Firmicutes.c__Bacilli.o__Gemellales.f__Gemellaceae.f__Gemellaceae_x__L6'
p421
(lp422
F0.0
aF0.0
aF0.0
aF0.0
aF0.0
aF0.0
aF0.0
aF0.0
aF5020.395356134294
aF0.0
aF11171.910624715
aF3560.528992878942
aF3668.378576669112
aF12642.225031605562
aF0.0
aF9681.881051175656
aF17821.78217821782
aF6628.787878787879
aF8192.524321556579
aF11666.666666666668
aF13022.002694207453
aF1438.2281029771323
aF6018.054162487462
aF2041.7092022750476
aF10602.678571428572
asS'k__Bacteria.p__Proteobacteria.c__Gammaproteobacteria.o__Pasteurellales.f__Pasteurellaceae.g__Aggregatibacter'
p423
(lp424
F0.0
aF0.0
aF0.0
aF0.0
aF0.0
aF0.0
aF0.0
aF0.0
aF0.0
aF0.0
aF0.0
aF0.0
aF15407.19002201027
aF7585.3350189633375
aF0.0
aF0.0
aF0.0
aF0.0
aF0.0
aF7222.222222222222
aF0.0
aF0.0
aF0.0
aF0.0
aF0.0
asS'k__Bacteria.p__Actinobacteria.c__Actinobacteria.o__Actinomycetales.f__Micrococcaceae.g__Micrococcus'
p425
(lp426
F0.0
aF0.0
aF0.0
aF0.0
aF0.0
aF0.0
aF0.0
aF0.0
aF3137.7470975839337
aF0.0
aF6611.947104423163
aF0.0
aF0.0
aF0.0
aF0.0
aF0.0
aF0.0
aF0.0
aF0.0
aF0.0
aF0.0
aF0.0
aF0.0
aF0.0
aF0.0
asS'k__Bacteria.p__Bacteroidetes.c__Bacteroidia.o__Bacteroidales.f__Rikenellaceae.g__Alistipes'
p427
(lp428
F0.0
aF381.1459789099224
aF573.6576411197798
aF385.2080123266564
aF28506.78733031674
aF44028.103044496485
aF34550.355305072284
aF17590.39508585788
aF0.0
aF0.0
aF0.0
aF0.0
aF0.0
aF0.0
aF0.0
aF0.0
aF0.0
aF0.0
aF0.0
aF0.0
aF0.0
aF0.0
aF0.0
aF0.0
aF0.0
asS'k__Bacteria.p__Firmicutes.c__Clostridia.o__Clostridiales.f__Lachnospiraceae.g__Oribacterium'
p429
(lp430
F0.0
aF0.0
aF0.0
aF0.0
aF4223.227752639517
aF4996.0967993754875
aF2327.860818426856
aF6701.10288985062
aF0.0
aF0.0
aF0.0
aF0.0
aF5869.40572267058
aF0.0
aF0.0
aF12052.953961667656
aF5544.554455445545
aF11837.121212121212
aF7680.491551459293
aF5555.555555555556
aF9878.760664571173
aF4314.684308931396
aF9862.922099632231
aF17208.691847746828
aF9486.607142857141
asS'k__Bacteria.p__Actinobacteria.c__Thermoleophilia.o__Gaiellales.f__Gaiellaceae'
p431
(lp432
F0.0
aF0.0
aF0.0
aF0.0
aF0.0
aF0.0
aF0.0
aF0.0
aF2196.4229683087538
aF0.0
aF0.0
aF0.0
aF0.0
aF0.0
aF0.0
aF0.0
aF0.0
aF0.0
aF0.0
aF0.0
aF0.0
aF0.0
aF0.0
aF0.0
aF0.0
asS'k__Bacteria.p__Actinobacteria.c__Actinobacteria.o__Actinomycetales.f__Intrasporangiaceae.f__Intrasporangiaceae_x__L6'
p433
(lp434
F0.0
aF0.0
aF0.0
aF0.0
aF0.0
aF0.0
aF0.0
aF0.0
aF5334.1700658926875
aF0.0
aF0.0
aF0.0
aF0.0
aF0.0
aF0.0
aF0.0
aF0.0
aF0.0
aF0.0
aF0.0
aF0.0
aF0.0
aF0.0
aF0.0
aF0.0
asS'k__Bacteria.p__Proteobacteria.c__Betaproteobacteria.o__Burkholderiales.f__Oxalobacteraceae.f__Oxalobacteraceae_x__L6'
p435
(lp436
F0.0
aF0.0
aF0.0
aF0.0
aF0.0
aF0.0
aF0.0
aF0.0
aF9099.46658299341
aF6959.822840873142
aF4103.967168262653
aF1525.940996948118
aF0.0
aF4214.075010535187
aF0.0
aF0.0
aF0.0
aF0.0
aF0.0
aF0.0
aF0.0
aF0.0
aF0.0
aF0.0
aF0.0
asS'k__Bacteria.p__Bacteroidetes.c__Flavobacteriia.o__Flavobacteriales.f__Flavobacteriaceae'
p437
(lp438
F0.0
aF0.0
aF0.0
aF0.0
aF0.0
aF0.0
aF0.0
aF0.0
aF38594.28930028239
aF23726.668775703896
aF2963.9762881896936
aF0.0
aF18341.89288334556
aF4214.075010535187
aF4933.051444679351
aF1778.3046828689983
aF0.0
aF1420.4545454545455
aF0.0
aF0.0
aF0.0
aF1438.2281029771323
aF668.6726847208292
aF0.0
aF0.0
asS'k__Bacteria.p__Actinobacteria.c__Actinobacteria.o__Actinomycetales.f__Nocardioidaceae'
p439
(lp440
F0.0
aF0.0
aF0.0
aF0.0
aF0.0
aF0.0
aF0.0
aF0.0
aF0.0
aF5061.68933881683
aF0.0
aF0.0
aF0.0
aF3792.6675094816687
aF0.0
aF0.0
aF0.0
aF0.0
aF0.0
aF0.0
aF0.0
aF0.0
aF0.0
aF0.0
aF0.0
asS'k__Bacteria.p__Firmicutes.c__Bacilli.o__Gemellales.f__Gemellaceae'
p441
(lp442
F0.0
aF0.0
aF0.0
aF0.0
aF0.0
aF0.0
aF0.0
aF0.0
aF5020.395356134294
aF0.0
aF11171.910624715
aF3560.528992878942
aF3668.378576669112
aF12642.225031605562
aF0.0
aF9681.881051175656
aF17821.78217821782
aF6628.787878787879
aF8192.524321556579
aF11666.666666666668
aF13022.002694207453
aF1438.2281029771323
aF6018.054162487462
aF2041.7092022750476
aF10602.678571428572
asS'k__Bacteria.p__Proteobacteria.c__Deltaproteobacteria.o__Myxococcales.o__Myxococcales_x__L5'
p443
(lp444
F0.0
aF0.0
aF0.0
aF0.0
aF0.0
aF0.0
aF0.0
aF0.0
aF1255.0988390335735
aF0.0
aF0.0
aF0.0
aF0.0
aF0.0
aF0.0
aF0.0
aF0.0
aF0.0
aF0.0
aF0.0
aF0.0
aF0.0
aF0.0
aF0.0
aF0.0
asS'k__Bacteria.p__Firmicutes.c__Clostridia.o__Clostridiales.f__Lachnospiraceae.g___Ruminococcus_'
p445
(lp446
F2700.0142106011085
aF1397.5352560030487
aF0.0
aF1155.6240369799693
aF2714.9321266968323
aF0.0
aF0.0
aF7957.559681697611
aF0.0
aF0.0
aF0.0
aF0.0
aF0.0
aF0.0
aF0.0
aF0.0
aF0.0
aF0.0
aF0.0
aF0.0
aF0.0
aF0.0
aF0.0
aF0.0
aF0.0
asS'k__Bacteria.p__Fusobacteria.c__Fusobacteriia.o__Fusobacteriales.f__Leptotrichiaceae'
p447
(lp448
F0.0
aF0.0
aF0.0
aF0.0
aF0.0
aF0.0
aF0.0
aF0.0
aF15688.735487919668
aF17715.912685858908
aF15503.875968992244
aF31281.79043743642
aF28613.352898019075
aF3792.6675094816687
aF13389.71106412967
aF7705.986959098993
aF9504.950495049505
aF7575.757575757576
aF4096.262160778289
aF2777.777777777778
aF3592.276605298608
aF11362.002013519344
aF11868.94015379472
aF6708.473093189442
aF3906.25
asS'k__Bacteria.p__Proteobacteria.c__Alphaproteobacteria.o__Sphingomonadales.f__Sphingomonadaceae.g__Sphingopyxis'
p449
(lp450
F0.0
aF0.0
aF0.0
aF0.0
aF0.0
aF0.0
aF0.0
aF0.0
aF1882.6482585503604
aF0.0
aF0.0
aF0.0
aF0.0
aF0.0
aF0.0
aF0.0
aF0.0
aF0.0
aF0.0
aF0.0
aF0.0
aF0.0
aF0.0
aF0.0
aF0.0
asS'k__Bacteria.k__Bacteria_x__L2'
p451
(lp452
F0.0
aF0.0
aF0.0
aF0.0
aF0.0
aF0.0
aF0.0
aF0.0
aF15688.735487919668
aF16134.134767478647
aF2279.981760145918
aF6358.087487283826
aF0.0
aF842.8150021070376
aF7047.216349541931
aF0.0
aF0.0
aF0.0
aF0.0
aF0.0
aF0.0
aF0.0
aF0.0
aF0.0
aF0.0
asS'k__Bacteria.p__Proteobacteria.c__Alphaproteobacteria.o__Rhodospirillales'
p453
(lp454
F0.0
aF0.0
aF0.0
aF0.0
aF0.0
aF0.0
aF0.0
aF0.0
aF0.0
aF949.0667510281557
aF455.99635202918364
aF762.970498474059
aF0.0
aF0.0
aF0.0
aF0.0
aF0.0
aF0.0
aF0.0
aF0.0
aF0.0
aF0.0
aF0.0
aF0.0
aF0.0
asS'k__Bacteria.p__Actinobacteria.c__Thermoleophilia.o__Gaiellales'
p455
(lp456
F0.0
aF0.0
aF0.0
aF0.0
aF0.0
aF0.0
aF0.0
aF0.0
aF2196.4229683087538
aF0.0
aF0.0
aF0.0
aF0.0
aF0.0
aF0.0
aF0.0
aF0.0
aF0.0
aF0.0
aF0.0
aF0.0
aF0.0
aF0.0
aF0.0
aF0.0
asS'k__Bacteria.p__Actinobacteria.c__Actinobacteria.o__Actinomycetales.f__Dermabacteraceae'
p457
(lp458
F0.0
aF0.0
aF0.0
aF0.0
aF0.0
aF0.0
aF0.0
aF0.0
aF0.0
aF0.0
aF0.0
aF0.0
aF489.1171435558817
aF0.0
aF0.0
aF0.0
aF0.0
aF0.0
aF0.0
aF0.0
aF0.0
aF0.0
aF0.0
aF0.0
aF0.0
asS'k__Bacteria.p__Proteobacteria.c__Deltaproteobacteria.o__Desulfovibrionales.f__Desulfomicrobiaceae'
p459
(lp460
F0.0
aF0.0
aF0.0
aF0.0
aF0.0
aF0.0
aF0.0
aF0.0
aF941.3241292751802
aF632.7111673521038
aF0.0
aF0.0
aF0.0
aF0.0
aF0.0
aF0.0
aF0.0
aF0.0
aF0.0
aF0.0
aF0.0
aF0.0
aF0.0
aF0.0
aF0.0
asS'k__Bacteria.p__Cyanobacteria.c__Chloroplast.o__Chlorophyta.o__Chlorophyta_f__L5'
p461
(lp462
F0.0
aF0.0
aF0.0
aF0.0
aF0.0
aF0.0
aF0.0
aF0.0
aF0.0
aF0.0
aF0.0
aF762.970498474059
aF0.0
aF0.0
aF0.0
aF0.0
aF0.0
aF0.0
aF0.0
aF0.0
aF0.0
aF0.0
aF0.0
aF0.0
aF0.0
asS'k__Bacteria.k__Bacteria_x__L2.k__Bacteria_x__L3'
p463
(lp464
F0.0
aF0.0
aF0.0
aF0.0
aF0.0
aF0.0
aF0.0
aF0.0
aF15688.735487919668
aF16134.134767478647
aF2279.981760145918
aF6358.087487283826
aF0.0
aF842.8150021070376
aF7047.216349541931
aF0.0
aF0.0
aF0.0
aF0.0
aF0.0
aF0.0
aF0.0
aF0.0
aF0.0
aF0.0
asS'k__Bacteria.p__Firmicutes.c__Clostridia.o__Clostridiales.f__Ruminococcaceae.g__Faecalibacterium'
p465
(lp466
F18331.675429870684
aF115106.08563079656
aF79508.94905920148
aF116846.43040575243
aF85218.70286576169
aF39032.006245121
aF62362.16613575104
aF99260.0865559123
aF3765.296517100721
aF6327.111673521038
aF1367.989056087551
aF0.0
aF0.0
aF4214.075010535187
aF9161.38125440451
aF0.0
aF0.0
aF0.0
aF0.0
aF0.0
aF0.0
aF0.0
aF0.0
aF0.0
aF0.0
asS'k__Bacteria.p__Bacteroidetes.c__Flavobacteriia.o__Flavobacteriales.f__Flavobacteriaceae.g__Flavobacterium'
p467
(lp468
F0.0
aF0.0
aF0.0
aF0.0
aF0.0
aF0.0
aF0.0
aF0.0
aF11295.889551302163
aF22461.246440999686
aF0.0
aF0.0
aF0.0
aF1685.6300042140751
aF4933.051444679351
aF0.0
aF0.0
aF0.0
aF0.0
aF0.0
aF0.0
aF0.0
aF0.0
aF0.0
aF0.0
asS'k__Bacteria.p__Proteobacteria.c__Gammaproteobacteria.o__Xanthomonadales.f__Xanthomonadaceae.f__Xanthomonadaceae_x__L6'
p469
(lp470
F0.0
aF0.0
aF0.0
aF0.0
aF0.0
aF0.0
aF0.0
aF0.0
aF8785.691873235015
aF0.0
aF0.0
aF0.0
aF0.0
aF0.0
aF0.0
aF0.0
aF0.0
aF0.0
aF0.0
aF0.0
aF0.0
aF0.0
aF0.0
aF0.0
aF0.0
asS'k__Bacteria.p__Proteobacteria.c__Alphaproteobacteria.o__Sphingomonadales.f__Sphingomonadaceae.g__Sphingomonas'
p471
(lp472
F0.0
aF0.0
aF0.0
aF0.0
aF0.0
aF0.0
aF0.0
aF0.0
aF15374.960778161276
aF6327.111673521038
aF5927.952576379387
aF5340.793489318413
aF0.0
aF2949.8525073746314
aF11980.267794221281
aF0.0
aF0.0
aF0.0
aF0.0
aF0.0
aF0.0
aF0.0
aF0.0
aF0.0
aF0.0
asS'k__Bacteria.p__Chloroflexi.c__Ellin6529.c__Ellin6529_o__L4'
p473
(lp474
F0.0
aF0.0
aF0.0
aF0.0
aF0.0
aF0.0
aF0.0
aF0.0
aF941.3241292751802
aF0.0
aF0.0
aF0.0
aF0.0
aF0.0
aF0.0
aF0.0
aF0.0
aF0.0
aF0.0
aF0.0
aF0.0
aF0.0
aF0.0
aF0.0
aF0.0
asS'k__Bacteria.p__Spirochaetes.c__Spirochaetes'
p475
(lp476
F0.0
aF0.0
aF0.0
aF0.0
aF0.0
aF0.0
aF0.0
aF0.0
aF0.0
aF0.0
aF0.0
aF0.0
aF12961.604304230863
aF0.0
aF0.0
aF0.0
aF0.0
aF0.0
aF0.0
aF0.0
aF0.0
aF0.0
aF0.0
aF0.0
aF0.0
asS'k__Bacteria.p__Firmicutes.c__Bacilli.c__Bacilli_x__L4.c__Bacilli_x__L5.c__Bacilli_x__L6'
p477
(lp478
F0.0
aF0.0
aF0.0
aF0.0
aF0.0
aF1092.896174863388
aF735.1139426611124
aF0.0
aF15374.960778161276
aF30370.136032900984
aF51755.585955312345
aF20854.526958290946
aF25678.650036683786
aF134007.58533501896
aF194503.1712473573
aF0.0
aF0.0
aF0.0
aF0.0
aF0.0
aF0.0
aF0.0
aF0.0
aF0.0
aF0.0
asS'k__Bacteria.p__Firmicutes.c__Clostridia.o__Clostridiales.f__Ruminococcaceae.g__Gemmiger'
p479
(lp480
F0.0
aF0.0
aF0.0
aF0.0
aF7088.989441930618
aF7806.401249024199
aF12741.97500612595
aF0.0
aF0.0
aF0.0
aF0.0
aF0.0
aF0.0
aF0.0
aF0.0
aF0.0
aF0.0
aF0.0
aF0.0
aF0.0
aF0.0
aF0.0
aF0.0
aF0.0
aF0.0
asS'k__Bacteria.p__Synergistetes.c__Synergistia.o__Synergistales'
p481
(lp482
F0.0
aF0.0
aF0.0
aF0.0
aF0.0
aF0.0
aF0.0
aF0.0
aF0.0
aF0.0
aF0.0
aF0.0
aF9293.22572756175
aF0.0
aF0.0
aF0.0
aF0.0
aF0.0
aF0.0
aF0.0
aF0.0
aF0.0
aF0.0
aF0.0
aF0.0
asS'k__Bacteria.p__Cyanobacteria.c__Chloroplast.o__Streptophyta'
p483
(lp484
F0.0
aF0.0
aF0.0
aF0.0
aF0.0
aF0.0
aF0.0
aF0.0
aF53969.25007844366
aF37013.60329009807
aF1823.9854081167346
aF16276.703967446592
aF1711.9100024455856
aF16434.89254108723
aF33121.91684284708
aF1383.1258644536654
aF3168.3168316831684
aF0.0
aF0.0
aF0.0
aF118096.09339919174
aF0.0
aF0.0
aF0.0
aF0.0
asS'k__Bacteria.p__Firmicutes.c__Erysipelotrichi.o__Erysipelotrichales.f__Erysipelotrichaceae.g__Bulleidia'
p485
(lp486
F0.0
aF0.0
aF0.0
aF0.0
aF0.0
aF0.0
aF0.0
aF0.0
aF0.0
aF0.0
aF0.0
aF0.0
aF2934.70286133529
aF0.0
aF0.0
aF395.17881841533296
aF1188.118811881188
aF0.0
aF1024.0655401945723
aF0.0
aF0.0
aF3739.3930677405438
aF1838.8498829822804
aF1166.6909727285986
aF0.0
asS'k__Bacteria.p__Spirochaetes'
p487
(lp488
F0.0
aF0.0
aF0.0
aF0.0
aF0.0
aF0.0
aF0.0
aF0.0
aF0.0
aF0.0
aF0.0
aF0.0
aF12961.604304230863
aF0.0
aF0.0
aF0.0
aF0.0
aF0.0
aF0.0
aF0.0
aF0.0
aF0.0
aF0.0
aF0.0
aF0.0
asS'k__Bacteria.p__Proteobacteria.c__Betaproteobacteria.o__Neisseriales.f__Neisseriaceae.g__Conchiformibius'
p489
(lp490
F0.0
aF0.0
aF0.0
aF0.0
aF0.0
aF0.0
aF0.0
aF0.0
aF23219.32852212111
aF6010.7560898449865
aF0.0
aF0.0
aF0.0
aF0.0
aF0.0
aF0.0
aF0.0
aF0.0
aF0.0
aF0.0
aF0.0
aF0.0
aF0.0
aF0.0
aF0.0
asS'k__Bacteria.p__Bacteroidetes.c__Cytophagia.o__Cytophagales.f__Cytophagaceae.g__Hymenobacter'
p491
(lp492
F0.0
aF0.0
aF0.0
aF0.0
aF0.0
aF0.0
aF0.0
aF0.0
aF0.0
aF0.0
aF0.0
aF1780.264496439471
aF0.0
aF0.0
aF0.0
aF0.0
aF0.0
aF0.0
aF0.0
aF0.0
aF0.0
aF0.0
aF0.0
aF0.0
aF0.0
asS'k__Bacteria.p__Firmicutes.c__Clostridia.o__OPB54.o__OPB54_f__L5'
p493
(lp494
F0.0
aF0.0
aF0.0
aF0.0
aF0.0
aF0.0
aF0.0
aF0.0
aF627.5494195167868
aF0.0
aF0.0
aF0.0
aF0.0
aF0.0
aF0.0
aF0.0
aF0.0
aF0.0
aF0.0
aF0.0
aF0.0
aF0.0
aF0.0
aF0.0
aF0.0
asS'k__Bacteria.p__Proteobacteria.c__Gammaproteobacteria.o__Pseudomonadales.f__Moraxellaceae.g__Acinetobacter'
p495
(lp496
F0.0
aF0.0
aF0.0
aF0.0
aF0.0
aF0.0
aF0.0
aF0.0
aF16943.83432695324
aF12337.867763366025
aF17783.857729138163
aF206765.00508647
aF978.2342871117634
aF0.0
aF0.0
aF4742.145820983995
aF0.0
aF0.0
aF0.0
aF0.0
aF0.0
aF0.0
aF0.0
aF0.0
aF0.0
asS'k__Bacteria.p__Actinobacteria.c__Actinobacteria.o__Actinomycetales.f__Nocardiaceae'
p497
(lp498
F0.0
aF0.0
aF0.0
aF0.0
aF0.0
aF0.0
aF0.0
aF0.0
aF4392.8459366175075
aF0.0
aF0.0
aF2288.9114954221773
aF0.0
aF0.0
aF0.0
aF0.0
aF0.0
aF0.0
aF0.0
aF0.0
aF0.0
aF0.0
aF0.0
aF0.0
aF0.0
asS'k__Bacteria.p__Cyanobacteria.c__Chloroplast.o__Streptophyta.o__Streptophyta_f__L5.o__Streptophyta_g__L6'
p499
(lp500
F0.0
aF0.0
aF0.0
aF0.0
aF0.0
aF0.0
aF0.0
aF0.0
aF53969.25007844366
aF37013.60329009807
aF1823.9854081167346
aF16276.703967446592
aF1711.9100024455856
aF16434.89254108723
aF33121.91684284708
aF1383.1258644536654
aF3168.3168316831684
aF0.0
aF0.0
aF0.0
aF118096.09339919174
aF0.0
aF0.0
aF0.0
aF0.0
asS'k__Bacteria.p__Firmicutes.c__Clostridia.o__Clostridiales.f___Tissierellaceae_.f___Tissierellaceae__g__L6'
p501
(lp502
F0.0
aF0.0
aF0.0
aF0.0
aF0.0
aF0.0
aF0.0
aF0.0
aF627.5494195167868
aF0.0
aF0.0
aF0.0
aF0.0
aF0.0
aF0.0
aF0.0
aF0.0
aF0.0
aF0.0
aF0.0
aF0.0
aF0.0
aF0.0
aF0.0
aF0.0
asS'k__Bacteria.p__Proteobacteria.c__Alphaproteobacteria.o__Caulobacterales.f__Caulobacteraceae.g__Brevundimonas'
p503
(lp504
F0.0
aF0.0
aF0.0
aF0.0
aF0.0
aF0.0
aF0.0
aF0.0
aF5961.719485409475
aF3163.555836760519
aF2735.978112175102
aF5849.440488301119
aF0.0
aF0.0
aF0.0
aF0.0
aF0.0
aF0.0
aF0.0
aF0.0
aF0.0
aF0.0
aF0.0
aF0.0
aF0.0
asS'k__Bacteria.p__Firmicutes.c__Clostridia.o__Clostridiales.f__Christensenellaceae'
p505
(lp506
F0.0
aF0.0
aF0.0
aF0.0
aF0.0
aF468.384074941452
aF0.0
aF0.0
aF0.0
aF0.0
aF0.0
aF0.0
aF0.0
aF0.0
aF0.0
aF0.0
aF0.0
aF0.0
aF0.0
aF0.0
aF0.0
aF0.0
aF0.0
aF0.0
aF0.0
asS'k__Bacteria.p__Actinobacteria.c__Actinobacteria.o__Bifidobacteriales.f__Bifidobacteriaceae'
p507
(lp508
F0.0
aF0.0
aF0.0
aF0.0
aF0.0
aF0.0
aF0.0
aF0.0
aF0.0
aF0.0
aF0.0
aF0.0
aF1467.351430667645
aF0.0
aF0.0
aF0.0
aF0.0
aF0.0
aF0.0
aF0.0
aF0.0
aF0.0
aF0.0
aF0.0
aF0.0
asS'k__Bacteria.p__Firmicutes.c__Bacilli.c__Bacilli_x__L4'
p509
(lp510
F0.0
aF0.0
aF0.0
aF0.0
aF0.0
aF1092.896174863388
aF735.1139426611124
aF0.0
aF15374.960778161276
aF30370.136032900984
aF51755.585955312345
aF20854.526958290946
aF25678.650036683786
aF134007.58533501896
aF194503.1712473573
aF0.0
aF0.0
aF0.0
aF0.0
aF0.0
aF0.0
aF0.0
aF0.0
aF0.0
aF0.0
asS'k__Bacteria.p__GN02.c__BD1_5.c__BD1_5_o__L4'
p511
(lp512
F0.0
aF0.0
aF0.0
aF0.0
aF0.0
aF0.0
aF0.0
aF0.0
aF627.5494195167868
aF0.0
aF683.9945280437755
aF0.0
aF733.6757153338225
aF0.0
aF0.0
aF0.0
aF0.0
aF0.0
aF0.0
aF0.0
aF0.0
aF0.0
aF0.0
aF0.0
aF0.0
asS'k__Bacteria.p__Firmicutes.c__Clostridia.o__Clostridiales.f__Lachnospiraceae.g__Coprococcus'
p513
(lp514
F5257.922410117949
aF7877.016897471729
aF27420.835245525468
aF13353.87776065742
aF3167.420814479638
aF3590.944574551132
aF19235.481499632442
aF1954.4883428730975
aF0.0
aF0.0
aF0.0
aF0.0
aF0.0
aF0.0
aF0.0
aF0.0
aF0.0
aF0.0
aF0.0
aF0.0
aF0.0
aF0.0
aF0.0
aF0.0
aF0.0
asS'k__Bacteria.p__Proteobacteria.c__Betaproteobacteria.o__Methylophilales.f__Methylophilaceae'
p515
(lp516
F0.0
aF0.0
aF0.0
aF0.0
aF0.0
aF0.0
aF0.0
aF0.0
aF0.0
aF0.0
aF0.0
aF2034.587995930824
aF0.0
aF0.0
aF0.0
aF0.0
aF0.0
aF0.0
aF0.0
aF0.0
aF0.0
aF0.0
aF0.0
aF0.0
aF0.0
asS'k__Bacteria.p__Actinobacteria.c__Actinobacteria.o__Bifidobacteriales'
p517
(lp518
F0.0
aF0.0
aF0.0
aF0.0
aF0.0
aF0.0
aF0.0
aF0.0
aF0.0
aF0.0
aF0.0
aF0.0
aF1467.351430667645
aF0.0
aF0.0
aF0.0
aF0.0
aF0.0
aF0.0
aF0.0
aF0.0
aF0.0
aF0.0
aF0.0
aF0.0
asS'k__Bacteria.p__Proteobacteria.c__Alphaproteobacteria.o__Rickettsiales.f__mitochondria.f__mitochondria_x__L6'
p519
(lp520
F0.0
aF0.0
aF0.0
aF0.0
aF0.0
aF0.0
aF0.0
aF0.0
aF13178.537809852523
aF0.0
aF0.0
aF22889.114954221768
aF0.0
aF14327.855035819637
aF0.0
aF395.17881841533296
aF0.0
aF0.0
aF0.0
aF0.0
aF23798.83251010328
aF0.0
aF0.0
aF0.0
aF0.0
asS'k__Bacteria.p__Bacteroidetes.c__Bacteroidia.o__Bacteroidales.f__Prevotellaceae.g__Prevotella'
p521
(lp522
F0.0
aF0.0
aF0.0
aF10272.21366204417
aF0.0
aF0.0
aF0.0
aF7957.559681697611
aF5961.719485409475
aF3163.555836760519
aF27359.78112175102
aF4069.175991861648
aF102714.60014673515
aF0.0
aF6342.494714587738
aF55917.802805769614
aF186930.69306930693
aF80492.42424242424
aF375832.0532514081
aF69444.44444444445
aF111360.57476425685
aF277578.0238745865
aF46639.919759277844
aF44188.420592095674
aF60267.857142857145
asS'k__Bacteria.p__Actinobacteria.c__Coriobacteriia.o__Coriobacteriales.f__Coriobacteriaceae'
p523
(lp524
F0.0
aF0.0
aF0.0
aF0.0
aF0.0
aF468.384074941452
aF245.0379808870375
aF0.0
aF0.0
aF0.0
aF0.0
aF0.0
aF3668.378576669112
aF0.0
aF0.0
aF0.0
aF0.0
aF0.0
aF2560.1638504864313
aF0.0
aF0.0
aF1869.6965338702719
aF1170.1771982614512
aF729.1818579553741
aF0.0
asS'k__Bacteria.p__Firmicutes.c__Clostridia.o__Clostridiales.f__Lachnospiraceae.g__Butyrivibrio'
p525
(lp526
F0.0
aF0.0
aF0.0
aF0.0
aF0.0
aF0.0
aF0.0
aF0.0
aF0.0
aF0.0
aF0.0
aF0.0
aF0.0
aF0.0
aF0.0
aF0.0
aF0.0
aF0.0
aF0.0
aF0.0
aF0.0
aF0.0
aF0.0
aF1312.5273443196734
aF0.0
asS'k__Bacteria.p__Actinobacteria.c__Thermoleophilia.o__Gaiellales.f__Gaiellaceae.g__Gaiella'
p527
(lp528
F0.0
aF0.0
aF0.0
aF0.0
aF0.0
aF0.0
aF0.0
aF0.0
aF2196.4229683087538
aF0.0
aF0.0
aF0.0
aF0.0
aF0.0
aF0.0
aF0.0
aF0.0
aF0.0
aF0.0
aF0.0
aF0.0
aF0.0
aF0.0
aF0.0
aF0.0
asS'k__Bacteria.p__Proteobacteria.c__Betaproteobacteria.o__Neisseriales.f__Neisseriaceae.f__Neisseriaceae_g__L6'
p529
(lp530
F0.0
aF0.0
aF0.0
aF0.0
aF0.0
aF0.0
aF0.0
aF0.0
aF0.0
aF0.0
aF1139.990880072959
aF0.0
aF0.0
aF0.0
aF0.0
aF0.0
aF0.0
aF0.0
aF0.0
aF0.0
aF0.0
aF0.0
aF0.0
aF0.0
aF0.0
asS'k__Bacteria.p__Proteobacteria.c__Alphaproteobacteria.o__Rhizobiales.f__Methylobacteriaceae'
p531
(lp532
F0.0
aF0.0
aF0.0
aF0.0
aF0.0
aF0.0
aF0.0
aF0.0
aF3137.7470975839337
aF1898.1335020563115
aF0.0
aF2288.9114954221773
aF0.0
aF0.0
aF4933.051444679351
aF0.0
aF0.0
aF0.0
aF0.0
aF0.0
aF0.0
aF0.0
aF0.0
aF0.0
aF0.0
asS'k__Bacteria.p__Firmicutes.c__Clostridia.o__Clostridiales.f__Peptococcaceae.g__Peptococcus'
p533
(lp534
F0.0
aF0.0
aF0.0
aF0.0
aF0.0
aF0.0
aF0.0
aF0.0
aF0.0
aF949.0667510281557
aF0.0
aF508.646998982706
aF733.6757153338225
aF0.0
aF0.0
aF0.0
aF0.0
aF0.0
aF0.0
aF0.0
aF0.0
aF0.0
aF0.0
aF1020.8546011375238
aF0.0
asS'k__Bacteria.p__Proteobacteria.c__Gammaproteobacteria.o__Pasteurellales.f__Pasteurellaceae.g__Pasteurella'
p535
(lp536
F0.0
aF0.0
aF0.0
aF0.0
aF0.0
aF0.0
aF0.0
aF0.0
aF5647.944775651082
aF0.0
aF0.0
aF0.0
aF0.0
aF0.0
aF0.0
aF0.0
aF0.0
aF0.0
aF0.0
aF0.0
aF0.0
aF0.0
aF0.0
aF0.0
aF0.0
asS'k__Bacteria.p__Firmicutes.c__Clostridia.o__Clostridiales.f__Lachnospiraceae.g__Lachnoanaerobaculum'
p537
(lp538
F0.0
aF0.0
aF0.0
aF0.0
aF0.0
aF0.0
aF0.0
aF0.0
aF0.0
aF0.0
aF911.9927040583673
aF0.0
aF5869.40572267058
aF0.0
aF0.0
aF0.0
aF0.0
aF0.0
aF2560.1638504864313
aF0.0
aF0.0
aF0.0
aF0.0
aF0.0
aF0.0
asS'k__Bacteria.p__Proteobacteria.c__Betaproteobacteria.o__Burkholderiales.f__Comamonadaceae'
p539
(lp540
F0.0
aF2668.021852369457
aF4015.6034878384585
aF0.0
aF0.0
aF3122.56049960968
aF0.0
aF1535.6694122574338
aF16316.284907436457
aF9490.667510281557
aF4787.961696306428
aF15513.733468972532
aF8804.10858400587
aF0.0
aF0.0
aF29638.41138114997
aF0.0
aF0.0
aF0.0
aF0.0
aF0.0
aF0.0
aF0.0
aF0.0
aF0.0
asS'k__Bacteria.p__Firmicutes.c__Bacilli.o__Lactobacillales.f__Aerococcaceae.g__Abiotrophia'
p541
(lp542
F0.0
aF0.0
aF0.0
aF0.0
aF0.0
aF0.0
aF0.0
aF0.0
aF0.0
aF0.0
aF0.0
aF0.0
aF4891.1714355588165
aF0.0
aF0.0
aF0.0
aF0.0
aF0.0
aF0.0
aF0.0
aF0.0
aF0.0
aF0.0
aF0.0
aF0.0
asS'k__Bacteria.p__Verrucomicrobia.c___Pedosphaerae_.o___Pedosphaerales_.o___Pedosphaerales__f__L5'
p543
(lp544
F0.0
aF0.0
aF0.0
aF0.0
aF0.0
aF0.0
aF0.0
aF0.0
aF0.0
aF0.0
aF0.0
aF0.0
aF0.0
aF0.0
aF1409.4432699083864
aF0.0
aF0.0
aF0.0
aF0.0
aF0.0
aF0.0
aF0.0
aF0.0
aF0.0
aF0.0
asS'k__Bacteria.p__Bacteroidetes.c__Sphingobacteriia.o__Sphingobacteriales.f__Sphingobacteriaceae.g__Sphingobacterium'
p545
(lp546
F0.0
aF0.0
aF0.0
aF0.0
aF0.0
aF0.0
aF0.0
aF0.0
aF0.0
aF10123.37867763366
aF0.0
aF0.0
aF0.0
aF0.0
aF0.0
aF0.0
aF0.0
aF0.0
aF0.0
aF0.0
aF0.0
aF0.0
aF0.0
aF0.0
aF0.0
asS'k__Bacteria.p__Proteobacteria.c__Alphaproteobacteria.o__Caulobacterales.f__Caulobacteraceae'
p547
(lp548
F0.0
aF0.0
aF0.0
aF0.0
aF0.0
aF0.0
aF0.0
aF0.0
aF5961.719485409475
aF3163.555836760519
aF2735.978112175102
aF5849.440488301119
aF0.0
aF0.0
aF2818.8865398167727
aF0.0
aF0.0
aF0.0
aF0.0
aF0.0
aF0.0
aF0.0
aF0.0
aF0.0
aF0.0
asS'k__Bacteria.p__Tenericutes'
p549
(lp550
F0.0
aF0.0
aF0.0
aF0.0
aF0.0
aF0.0
aF0.0
aF0.0
aF3451.5218073423275
aF949.0667510281557
aF0.0
aF2543.23499491353
aF0.0
aF0.0
aF0.0
aF0.0
aF0.0
aF0.0
aF0.0
aF0.0
aF0.0
aF0.0
aF0.0
aF0.0
aF0.0
asS'k__Bacteria.p__Proteobacteria.c__Betaproteobacteria.o__Burkholderiales.f__Oxalobacteraceae'
p551
(lp552
F0.0
aF0.0
aF0.0
aF0.0
aF0.0
aF0.0
aF612.5949522175938
aF0.0
aF17571.38374647003
aF6959.822840873142
aF4103.967168262653
aF1525.940996948118
aF0.0
aF4214.075010535187
aF19027.484143763213
aF0.0
aF0.0
aF0.0
aF0.0
aF0.0
aF0.0
aF0.0
aF0.0
aF0.0
aF0.0
asS'k__Bacteria.p__Proteobacteria.c__Gammaproteobacteria.o__Alteromonadales.f__Alteromonadaceae'
p553
(lp554
F0.0
aF0.0
aF0.0
aF0.0
aF0.0
aF0.0
aF0.0
aF0.0
aF1255.0988390335735
aF0.0
aF0.0
aF0.0
aF0.0
aF0.0
aF0.0
aF0.0
aF0.0
aF0.0
aF0.0
aF0.0
aF0.0
aF0.0
aF0.0
aF0.0
aF0.0
asS'k__Bacteria.p__Bacteroidetes.c__Flavobacteriia.o__Flavobacteriales.f___Weeksellaceae_.f___Weeksellaceae__g__L6'
p555
(lp556
F0.0
aF0.0
aF0.0
aF0.0
aF0.0
aF0.0
aF0.0
aF0.0
aF5334.1700658926875
aF1898.1335020563115
aF2051.9835841313266
aF2797.558494404883
aF5869.40572267058
aF0.0
aF0.0
aF2371.0729104919974
aF0.0
aF0.0
aF0.0
aF0.0
aF2245.17287831163
aF1869.6965338702719
aF1003.0090270812439
aF1166.6909727285986
aF0.0
asS'k__Bacteria.p__Firmicutes.c__Bacilli.o__Lactobacillales.f__Enterococcaceae'
p557
(lp558
F0.0
aF0.0
aF0.0
aF0.0
aF0.0
aF0.0
aF0.0
aF0.0
aF8158.142453718228
aF0.0
aF0.0
aF0.0
aF0.0
aF0.0
aF0.0
aF0.0
aF0.0
aF0.0
aF0.0
aF0.0
aF0.0
aF0.0
aF0.0
aF0.0
aF0.0
asS'k__Bacteria.p__FBP.p__FBP_c__L3.p__FBP_o__L4.p__FBP_f__L5'
p559
(lp560
F0.0
aF0.0
aF0.0
aF0.0
aF0.0
aF0.0
aF0.0
aF0.0
aF0.0
aF0.0
aF455.99635202918364
aF0.0
aF0.0
aF0.0
aF0.0
aF0.0
aF0.0
aF0.0
aF0.0
aF0.0
aF0.0
aF0.0
aF0.0
aF0.0
aF0.0
asS'k__Bacteria.p__Proteobacteria.c__Alphaproteobacteria.o__Sphingomonadales.f__Sphingomonadaceae.g__Kaistobacter'
p561
(lp562
F0.0
aF0.0
aF0.0
aF0.0
aF0.0
aF0.0
aF0.0
aF0.0
aF0.0
aF0.0
aF0.0
aF0.0
aF1467.351430667645
aF0.0
aF0.0
aF0.0
aF0.0
aF0.0
aF0.0
aF0.0
aF0.0
aF0.0
aF0.0
aF0.0
aF0.0
asS'k__Bacteria.p__Proteobacteria.c__Gammaproteobacteria.o__Pasteurellales.f__Pasteurellaceae'
p563
(lp564
F710.5300554213444
aF0.0
aF0.0
aF0.0
aF0.0
aF0.0
aF612.5949522175938
aF0.0
aF143395.0423595858
aF27522.935779816515
aF27359.78112175102
aF22634.791454730417
aF44509.66006358523
aF52254.530130636325
aF41578.57646229739
aF233353.0922742541
aF154455.44554455444
aF169034.0909090909
aF130056.3236047107
aF258888.8888888889
aF237539.29052537045
aF104127.71465554436
aF215814.10899364765
aF137086.18929561033
aF296875.0
asS'k__Bacteria.p__Proteobacteria.c__Gammaproteobacteria.o__Xanthomonadales.f__Xanthomonadaceae'
p565
(lp566
F0.0
aF0.0
aF0.0
aF0.0
aF0.0
aF0.0
aF0.0
aF0.0
aF29808.59742704737
aF0.0
aF0.0
aF0.0
aF0.0
aF0.0
aF0.0
aF0.0
aF0.0
aF0.0
aF0.0
aF0.0
aF0.0
aF0.0
aF0.0
aF0.0
aF0.0
asS'k__Bacteria.p__Bacteroidetes.c__Bacteroidia.o__Bacteroidales.o__Bacteroidales_f__L5'
p567
(lp568
F0.0
aF0.0
aF0.0
aF0.0
aF0.0
aF0.0
aF0.0
aF0.0
aF0.0
aF0.0
aF0.0
aF0.0
aF1467.351430667645
aF0.0
aF0.0
aF0.0
aF0.0
aF0.0
aF0.0
aF0.0
aF0.0
aF0.0
aF0.0
aF0.0
aF0.0
asS'k__Bacteria.p__Bacteroidetes.c__Bacteroidia.o__Bacteroidales.o__Bacteroidales_x__L5.o__Bacteroidales_x__L6'
p569
(lp570
F0.0
aF0.0
aF0.0
aF0.0
aF4374.057315233786
aF7806.401249024199
aF7106.101445724087
aF0.0
aF0.0
aF0.0
aF0.0
aF0.0
aF0.0
aF0.0
aF0.0
aF0.0
aF0.0
aF0.0
aF0.0
aF0.0
aF0.0
aF0.0
aF0.0
aF0.0
aF0.0
asS'k__Bacteria.p__FBP.p__FBP_c__L3.p__FBP_o__L4.p__FBP_f__L5.p__FBP_g__L6'
p571
(lp572
F0.0
aF0.0
aF0.0
aF0.0
aF0.0
aF0.0
aF0.0
aF0.0
aF0.0
aF0.0
aF455.99635202918364
aF0.0
aF0.0
aF0.0
aF0.0
aF0.0
aF0.0
aF0.0
aF0.0
aF0.0
aF0.0
aF0.0
aF0.0
aF0.0
aF0.0
asS'k__Bacteria.p__Firmicutes.c__Erysipelotrichi.o__Erysipelotrichales.f__Erysipelotrichaceae.f__Erysipelotrichaceae_g__L6'
p573
(lp574
F0.0
aF8639.308855291576
aF5392.381826525929
aF4237.28813559322
aF1206.6365007541478
aF1873.536299765808
aF5023.278608184269
aF0.0
aF0.0
aF0.0
aF0.0
aF508.646998982706
aF0.0
aF0.0
aF0.0
aF0.0
aF0.0
aF0.0
aF0.0
aF0.0
aF0.0
aF0.0
aF0.0
aF0.0
aF0.0
asS'k__Bacteria.p__Proteobacteria.c__Alphaproteobacteria.o__Rickettsiales.f__mitochondria'
p575
(lp576
F0.0
aF0.0
aF0.0
aF0.0
aF0.0
aF0.0
aF0.0
aF0.0
aF13178.537809852523
aF13286.934514394181
aF0.0
aF22889.114954221768
aF0.0
aF14327.855035819637
aF7047.216349541931
aF395.17881841533296
aF0.0
aF0.0
aF0.0
aF0.0
aF23798.83251010328
aF0.0
aF0.0
aF0.0
aF0.0
asS'k__Bacteria.p__Firmicutes.c__Clostridia.o__Clostridiales.f__Lachnospiraceae.g__Shuttleworthia'
p577
(lp578
F0.0
aF762.2919578198448
aF2179.8990362551626
aF0.0
aF0.0
aF0.0
aF3062.9747610879685
aF0.0
aF0.0
aF0.0
aF0.0
aF0.0
aF733.6757153338225
aF0.0
aF0.0
aF0.0
aF0.0
aF0.0
aF0.0
aF0.0
aF0.0
aF0.0
aF0.0
aF0.0
aF0.0
asS'k__Bacteria.p__Bacteroidetes.c__Bacteroidia.o__Bacteroidales.f__Bacteroidaceae'
p579
(lp580
F649140.2586329404
aF612882.7340871553
aF522602.11106011935
aF580508.4745762711
aF464253.39366515836
aF470882.1233411397
aF559789.2673364372
aF644003.9089766856
aF16316.284907436457
aF9807.02309395761
aF2279.981760145918
aF2543.23499491353
aF0.0
aF5899.705014749263
aF22551.09231853418
aF592.7682276229993
aF0.0
aF2367.4242424242425
aF0.0
aF5000.0
aF4490.34575662326
aF1294.4052926794188
aF835.8408559010365
aF1166.6909727285986
aF5580.357142857143
asS'k__Bacteria.p__Actinobacteria.c__Actinobacteria.o__Actinomycetales.f__Micrococcaceae.g__Rothia'
p581
(lp582
F0.0
aF0.0
aF0.0
aF0.0
aF0.0
aF0.0
aF0.0
aF0.0
aF1255.0988390335735
aF5061.68933881683
aF11855.905152758774
aF2797.558494404883
aF9048.66715578381
aF9270.965023177412
aF8456.659619450318
aF35170.91483896463
aF12277.227722772277
aF39299.242424242424
aF23041.474654377882
aF35555.555555555555
aF79928.15446789403
aF5465.266791313103
aF37445.67034436644
aF15750.32813183608
aF58035.71428571429
asS'k__Bacteria.p__Bacteroidetes.c__Flavobacteriia'
p583
(lp584
F0.0
aF0.0
aF0.0
aF0.0
aF0.0
aF0.0
aF0.0
aF0.0
aF68089.11201757137
aF29737.424865548885
aF5015.95987232102
aF4577.8229908443545
aF24211.298606016142
aF4214.075010535187
aF11980.267794221281
aF4149.377593360996
aF0.0
aF1420.4545454545455
aF0.0
aF0.0
aF2245.17287831163
aF3307.924636847404
aF1671.681711802073
aF1166.6909727285986
aF0.0
asS'k__Bacteria.p__Bacteroidetes.c__Bacteroidia.o__Bacteroidales.f__Bacteroidaceae.g__Bacteroides'
p585
(lp586
F649140.2586329404
aF612882.7340871553
aF522602.11106011935
aF580508.4745762711
aF464253.39366515836
aF470882.1233411397
aF559789.2673364372
aF644003.9089766856
aF16316.284907436457
aF9807.02309395761
aF2279.981760145918
aF2543.23499491353
aF0.0
aF5899.705014749263
aF22551.09231853418
aF592.7682276229993
aF0.0
aF2367.4242424242425
aF0.0
aF5000.0
aF4490.34575662326
aF1294.4052926794188
aF835.8408559010365
aF1166.6909727285986
aF5580.357142857143
asS'k__Bacteria.p__Proteobacteria.c__Gammaproteobacteria.o__Enterobacteriales.f__Enterobacteriaceae'
p587
(lp588
F34815.972715645876
aF23885.14801168847
aF0.0
aF4879.301489470981
aF754.1478129713424
aF0.0
aF735.1139426611124
aF8376.378612313274
aF9727.016002510196
aF4745.3337551407785
aF12539.899680802551
aF3560.528992878942
aF0.0
aF0.0
aF0.0
aF0.0
aF0.0
aF0.0
aF0.0
aF0.0
aF0.0
aF0.0
aF0.0
aF0.0
aF0.0
asS'k__Bacteria.p__Firmicutes.c__Clostridia.o__Clostridiales.f__Ruminococcaceae.g__Subdoligranulum'
p589
(lp590
F2131.590166264033
aF1143.4379367297672
aF688.3891693437356
aF0.0
aF603.3182503770739
aF0.0
aF0.0
aF2652.5198938992035
aF0.0
aF0.0
aF0.0
aF0.0
aF0.0
aF0.0
aF0.0
aF0.0
aF0.0
aF0.0
aF0.0
aF0.0
aF0.0
aF0.0
aF0.0
aF0.0
aF0.0
asS'k__Bacteria.p__Proteobacteria.c__Alphaproteobacteria.o__Caulobacterales.f__Caulobacteraceae.g__Caulobacter'
p591
(lp592
F0.0
aF0.0
aF0.0
aF0.0
aF0.0
aF0.0
aF0.0
aF0.0
aF0.0
aF0.0
aF0.0
aF0.0
aF0.0
aF0.0
aF2818.8865398167727
aF0.0
aF0.0
aF0.0
aF0.0
aF0.0
aF0.0
aF0.0
aF0.0
aF0.0
aF0.0
asS'k__Bacteria.p__Bacteroidetes.c__Flavobacteriia.o__Flavobacteriales.f___Weeksellaceae_.g__Bergeyella'
p593
(lp594
F0.0
aF0.0
aF0.0
aF0.0
aF0.0
aF0.0
aF0.0
aF0.0
aF6589.268904926262
aF0.0
aF0.0
aF0.0
aF0.0
aF0.0
aF0.0
aF0.0
aF0.0
aF0.0
aF0.0
aF0.0
aF0.0
aF0.0
aF0.0
aF0.0
aF0.0
asS'k__Bacteria.p__GN02.c__BD1_5.c__BD1_5_o__L4.c__BD1_5_f__L5.c__BD1_5_g__L6'
p595
(lp596
F0.0
aF0.0
aF0.0
aF0.0
aF0.0
aF0.0
aF0.0
aF0.0
aF627.5494195167868
aF0.0
aF683.9945280437755
aF0.0
aF733.6757153338225
aF0.0
aF0.0
aF0.0
aF0.0
aF0.0
aF0.0
aF0.0
aF0.0
aF0.0
aF0.0
aF0.0
aF0.0
asS'k__Bacteria.p__Firmicutes.c__Clostridia.o__Clostridiales.f___Tissierellaceae_.g__Parvimonas'
p597
(lp598
F0.0
aF0.0
aF0.0
aF0.0
aF0.0
aF0.0
aF0.0
aF0.0
aF2510.197678067147
aF949.0667510281557
aF2051.9835841313266
aF3051.881993896236
aF14184.397163120568
aF2107.0375052675936
aF4933.051444679351
aF0.0
aF5148.514851485149
aF946.969696969697
aF0.0
aF0.0
aF898.069151324652
aF1006.7596720839925
aF668.6726847208292
aF291.67274318214965
aF0.0
asS'k__Bacteria.p__Actinobacteria.c__Actinobacteria'
p599
(lp600
F0.0
aF0.0
aF0.0
aF0.0
aF0.0
aF0.0
aF0.0
aF977.2441714365488
aF80012.55098839031
aF44606.13729832332
aF337209.3023255813
aF303407.9348931841
aF90975.78870139399
aF166034.5554150864
aF140239.6053558844
aF46235.921754593954
aF17425.742574257427
aF50662.878787878784
aF41986.68714797747
aF35555.555555555555
aF92501.12258643915
aF7478.7861354810875
aF43129.38816449348
aF29167.274318214964
aF58035.71428571429
asS'k__Bacteria.p__Proteobacteria.c__Alphaproteobacteria'
p601
(lp602
F0.0
aF0.0
aF0.0
aF0.0
aF0.0
aF0.0
aF0.0
aF0.0
aF57420.771885785995
aF37013.60329009807
aF14819.88144094847
aF41454.73041709054
aF1467.351430667645
aF21913.190054782975
aF38054.968287526426
aF395.17881841533296
aF0.0
aF0.0
aF0.0
aF0.0
aF23798.83251010328
aF0.0
aF0.0
aF0.0
aF0.0
asS'k__Bacteria.p__Actinobacteria.c__Actinobacteria.o__Actinomycetales.f__Micrococcaceae.g__Arthrobacter'
p603
(lp604
F0.0
aF0.0
aF0.0
aF0.0
aF0.0
aF0.0
aF0.0
aF0.0
aF7216.8183244430475
aF0.0
aF0.0
aF0.0
aF0.0
aF0.0
aF0.0
aF0.0
aF0.0
aF0.0
aF0.0
aF0.0
aF0.0
aF0.0
aF0.0
aF0.0
aF0.0
asS'k__Bacteria.p__Actinobacteria.c__Actinobacteria.o__Actinomycetales.f__Corynebacteriaceae'
p605
(lp606
F0.0
aF0.0
aF0.0
aF0.0
aF0.0
aF0.0
aF0.0
aF977.2441714365488
aF51459.05240037652
aF33533.6918696615
aF311673.506611947
aF293997.9654120041
aF69699.19295671313
aF145385.58786346397
aF107117.68851303736
aF5730.0928670223275
aF0.0
aF1420.4545454545455
aF0.0
aF0.0
aF0.0
aF0.0
aF0.0
aF0.0
aF0.0
asS'k__Bacteria.p__Actinobacteria.c__Coriobacteriia.o__Coriobacteriales.f__Coriobacteriaceae.g__Atopobium'
p607
(lp608
F0.0
aF0.0
aF0.0
aF0.0
aF0.0
aF0.0
aF0.0
aF0.0
aF0.0
aF0.0
aF0.0
aF0.0
aF3668.378576669112
aF0.0
aF0.0
aF0.0
aF0.0
aF0.0
aF2560.1638504864313
aF0.0
aF0.0
aF1869.6965338702719
aF1170.1771982614512
aF729.1818579553741
aF0.0
asS'k__Bacteria.p__Firmicutes.c__Clostridia.o__Clostridiales.f__Lachnospiraceae.f__Lachnospiraceae_g__L6'
p609
(lp610
F0.0
aF1270.486596366408
aF22716.84258834328
aF4237.28813559322
aF31674.20814479638
aF3122.56049960968
aF7718.696397941681
aF3908.976685746195
aF0.0
aF0.0
aF0.0
aF0.0
aF0.0
aF0.0
aF0.0
aF0.0
aF0.0
aF0.0
aF0.0
aF0.0
aF0.0
aF0.0
aF0.0
aF0.0
aF0.0
asS'k__Bacteria.p__Verrucomicrobia.c__Verrucomicrobiae.o__Verrucomicrobiales.f__Verrucomicrobiaceae.g__Akkermansia'
p611
(lp612
F82705.69845104449
aF1143.4379367297672
aF3671.4089031665903
aF25808.93682588598
aF0.0
aF936.768149882904
aF367.5569713305562
aF0.0
aF0.0
aF0.0
aF0.0
aF0.0
aF0.0
aF0.0
aF0.0
aF0.0
aF0.0
aF0.0
aF0.0
aF0.0
aF0.0
aF0.0
aF0.0
aF0.0
aF0.0
asS'k__Bacteria.p__Firmicutes.c__Bacilli.o__Bacillales.f__Bacillaceae'
p613
(lp614
F0.0
aF0.0
aF0.0
aF0.0
aF0.0
aF0.0
aF0.0
aF0.0
aF15061.186068402883
aF0.0
aF0.0
aF0.0
aF0.0
aF0.0
aF0.0
aF0.0
aF0.0
aF0.0
aF0.0
aF0.0
aF0.0
aF0.0
aF0.0
aF0.0
aF0.0
asS'k__Bacteria.p__Synergistetes.c__Synergistia'
p615
(lp616
F0.0
aF0.0
aF0.0
aF0.0
aF0.0
aF0.0
aF0.0
aF0.0
aF0.0
aF0.0
aF0.0
aF0.0
aF9293.22572756175
aF0.0
aF0.0
aF0.0
aF0.0
aF0.0
aF0.0
aF0.0
aF0.0
aF0.0
aF0.0
aF0.0
aF0.0
asS'k__Bacteria.p__Proteobacteria.p__Proteobacteria_x__L3.p__Proteobacteria_x__L4'
p617
(lp618
F0.0
aF0.0
aF0.0
aF0.0
aF0.0
aF0.0
aF0.0
aF0.0
aF941.3241292751802
aF0.0
aF0.0
aF0.0
aF0.0
aF0.0
aF0.0
aF0.0
aF0.0
aF0.0
aF0.0
aF0.0
aF0.0
aF0.0
aF0.0
aF0.0
aF0.0
asS'k__Bacteria.p__Proteobacteria.c__Gammaproteobacteria.o__Pasteurellales.f__Pasteurellaceae.g__Haemophilus'
p619
(lp620
F710.5300554213444
aF0.0
aF0.0
aF0.0
aF0.0
aF0.0
aF612.5949522175938
aF0.0
aF4706.620646375901
aF6327.111673521038
aF21659.826721386224
aF9409.969481180062
aF29102.470041574958
aF41297.93510324484
aF31712.47357293869
aF233353.0922742541
aF154455.44554455444
aF169034.0909090909
aF130056.3236047107
aF251666.66666666666
aF237539.29052537045
aF104127.71465554436
aF215814.10899364765
aF137086.18929561033
aF296875.0
asS'k__Bacteria.p__Bacteroidetes.c__Bacteroidia.o__Bacteroidales.f___Paraprevotellaceae_.g__Paraprevotella'
p621
(lp622
F16768.50930794373
aF9782.746792021342
aF34304.72693896283
aF4879.301489470981
aF0.0
aF0.0
aF0.0
aF0.0
aF0.0
aF0.0
aF0.0
aF0.0
aF0.0
aF0.0
aF0.0
aF0.0
aF0.0
aF0.0
aF0.0
aF0.0
aF0.0
aF0.0
aF0.0
aF0.0
aF0.0
asS'k__Bacteria.p__Bacteroidetes.c__Bacteroidia.o__Bacteroidales.f___Odoribacteraceae_.g__Odoribacter'
p623
(lp624
F0.0
aF0.0
aF0.0
aF0.0
aF3167.420814479638
aF4839.9687743950035
aF2572.898799313894
aF0.0
aF0.0
aF0.0
aF0.0
aF0.0
aF0.0
aF0.0
aF0.0
aF0.0
aF0.0
aF0.0
aF0.0
aF0.0
aF0.0
aF0.0
aF0.0
aF0.0
aF0.0
asS'k__Bacteria.p__Tenericutes.c__Mollicutes.o__Mycoplasmatales.f__Mycoplasmataceae.g__Mycoplasma'
p625
(lp626
F0.0
aF0.0
aF0.0
aF0.0
aF0.0
aF0.0
aF0.0
aF0.0
aF3451.5218073423275
aF949.0667510281557
aF0.0
aF2543.23499491353
aF0.0
aF0.0
aF0.0
aF0.0
aF0.0
aF0.0
aF0.0
aF0.0
aF0.0
aF0.0
aF0.0
aF0.0
aF0.0
asS'k__Bacteria.p__Firmicutes.c__Clostridia.o__OPB54.o__OPB54_f__L5.o__OPB54_g__L6'
p627
(lp628
F0.0
aF0.0
aF0.0
aF0.0
aF0.0
aF0.0
aF0.0
aF0.0
aF627.5494195167868
aF0.0
aF0.0
aF0.0
aF0.0
aF0.0
aF0.0
aF0.0
aF0.0
aF0.0
aF0.0
aF0.0
aF0.0
aF0.0
aF0.0
aF0.0
aF0.0
asS'k__Bacteria.p__Actinobacteria.c__Actinobacteria.o__Actinomycetales.f__Intrasporangiaceae'
p629
(lp630
F0.0
aF0.0
aF0.0
aF0.0
aF0.0
aF0.0
aF0.0
aF0.0
aF5334.1700658926875
aF0.0
aF0.0
aF0.0
aF0.0
aF0.0
aF0.0
aF0.0
aF0.0
aF0.0
aF0.0
aF0.0
aF0.0
aF0.0
aF0.0
aF0.0
aF0.0
asS'k__Bacteria.p__Firmicutes.c__Clostridia.o__Clostridiales.f__Ruminococcaceae.f__Ruminococcaceae_x__L6'
p631
(lp632
F426.3180332528067
aF1651.6325752763305
aF2983.0197338228545
aF0.0
aF16289.592760180996
aF11241.217798594847
aF4165.645675079637
aF8934.80385313416
aF0.0
aF0.0
aF0.0
aF0.0
aF0.0
aF0.0
aF0.0
aF0.0
aF0.0
aF0.0
aF0.0
aF0.0
aF0.0
aF0.0
aF0.0
aF0.0
aF0.0
asS'k__Bacteria.p__TM7.c__TM7_3'
p633
(lp634
F0.0
aF0.0
aF0.0
aF0.0
aF0.0
aF0.0
aF0.0
aF0.0
aF0.0
aF0.0
aF0.0
aF0.0
aF0.0
aF0.0
aF0.0
aF0.0
aF0.0
aF0.0
aF0.0
aF0.0
aF0.0
aF287.64562059542646
aF0.0
aF0.0
aF0.0
asS'k__Bacteria.p__Proteobacteria.c__Gammaproteobacteria.o__Xanthomonadales'
p635
(lp636
F0.0
aF0.0
aF0.0
aF0.0
aF0.0
aF0.0
aF0.0
aF0.0
aF29808.59742704737
aF0.0
aF0.0
aF0.0
aF0.0
aF0.0
aF0.0
aF0.0
aF0.0
aF0.0
aF0.0
aF0.0
aF0.0
aF0.0
aF0.0
aF0.0
aF0.0
asS'k__Bacteria.p__Firmicutes.c__Bacilli.o__Lactobacillales.f__Streptococcaceae.g__Lactococcus'
p637
(lp638
F0.0
aF0.0
aF0.0
aF0.0
aF0.0
aF0.0
aF0.0
aF0.0
aF5961.719485409475
aF0.0
aF30551.755585955303
aF2034.587995930824
aF0.0
aF11378.002528445006
aF45806.90627202255
aF0.0
aF0.0
aF0.0
aF0.0
aF0.0
aF0.0
aF0.0
aF0.0
aF0.0
aF0.0
asS'k__Bacteria.p__Bacteroidetes.c___Saprospirae_.o___Saprospirales_.f__Chitinophagaceae.g__Flavisolibacter'
p639
(lp640
F0.0
aF0.0
aF0.0
aF0.0
aF0.0
aF0.0
aF0.0
aF0.0
aF7844.367743959834
aF4428.978171464727
aF0.0
aF0.0
aF0.0
aF0.0
aF0.0
aF0.0
aF0.0
aF0.0
aF0.0
aF0.0
aF0.0
aF0.0
aF0.0
aF0.0
aF0.0
asS'k__Bacteria.p__Synergistetes.c__Synergistia.o__Synergistales.f__Dethiosulfovibrionaceae'
p641
(lp642
F0.0
aF0.0
aF0.0
aF0.0
aF0.0
aF0.0
aF0.0
aF0.0
aF0.0
aF0.0
aF0.0
aF0.0
aF9293.22572756175
aF0.0
aF0.0
aF0.0
aF0.0
aF0.0
aF0.0
aF0.0
aF0.0
aF0.0
aF0.0
aF0.0
aF0.0
asS'k__Bacteria.p__Firmicutes.c__Clostridia.o__Clostridiales.f__Ruminococcaceae'
p643
(lp644
F35100.184737814416
aF133019.94663956293
aF120697.56769160165
aF129686.69748330764
aF163348.41628959277
aF126932.0843091335
aF126684.63611859837
aF153985.76015635903
aF3765.296517100721
aF6327.111673521038
aF1367.989056087551
aF2288.9114954221773
aF0.0
aF4214.075010535187
aF14094.432699083862
aF0.0
aF0.0
aF0.0
aF0.0
aF0.0
aF0.0
aF0.0
aF0.0
aF0.0
aF0.0
asS'k__Bacteria.p__Actinobacteria.c__Actinobacteria.o__Actinomycetales.f__Actinomycetaceae.g__Actinomyces'
p645
(lp646
F0.0
aF0.0
aF0.0
aF0.0
aF0.0
aF0.0
aF0.0
aF0.0
aF0.0
aF0.0
aF0.0
aF0.0
aF1711.9100024455856
aF0.0
aF0.0
aF5334.914048606995
aF5148.514851485149
aF9943.181818181818
aF18945.212493599593
aF0.0
aF12572.968118545126
aF2013.519344167985
aF5683.717820127048
aF13416.946186378884
aF0.0
asS'k__Bacteria.p__Fusobacteria.c__Fusobacteriia'
p647
(lp648
F426.3180332528067
aF0.0
aF0.0
aF3980.4827940421164
aF0.0
aF0.0
aF0.0
aF0.0
aF35456.54220269845
aF28472.002530844675
aF37847.69721842225
aF49338.758901322486
aF149669.8459280998
aF11799.410029498526
aF33826.63847780127
aF132582.4935783442
aF209108.91089108912
aF103693.18181818182
aF58883.76856118792
aF26111.111111111113
aF82622.361921868
aF103552.42341435351
aF163657.63958542293
aF97418.69622283797
aF98214.28571428571
asS'k__Bacteria.p__SR1.p__SR1_c__L3.p__SR1_o__L4.p__SR1_f__L5.p__SR1_g__L6'
p649
(lp650
F0.0
aF0.0
aF0.0
aF0.0
aF0.0
aF0.0
aF0.0
aF0.0
aF1568.8735487919669
aF1581.7779183802595
aF0.0
aF0.0
aF0.0
aF0.0
aF0.0
aF0.0
aF0.0
aF0.0
aF0.0
aF0.0
aF0.0
aF0.0
aF0.0
aF0.0
aF0.0
asS'k__Bacteria.p__SR1.p__SR1_c__L3.p__SR1_o__L4.p__SR1_f__L5'
p651
(lp652
F0.0
aF0.0
aF0.0
aF0.0
aF0.0
aF0.0
aF0.0
aF0.0
aF1568.8735487919669
aF1581.7779183802595
aF0.0
aF0.0
aF0.0
aF0.0
aF0.0
aF0.0
aF0.0
aF0.0
aF0.0
aF0.0
aF0.0
aF0.0
aF0.0
aF0.0
aF0.0
asS'k__Bacteria.p__Firmicutes.c__Clostridia.o__Clostridiales.f__Peptococcaceae'
p653
(lp654
F0.0
aF0.0
aF0.0
aF0.0
aF0.0
aF0.0
aF0.0
aF0.0
aF0.0
aF949.0667510281557
aF0.0
aF508.646998982706
aF733.6757153338225
aF0.0
aF0.0
aF0.0
aF0.0
aF0.0
aF0.0
aF0.0
aF0.0
aF0.0
aF0.0
aF1020.8546011375238
aF0.0
asS'k__Bacteria.p__GN02.c__BD1_5.c__BD1_5_o__L4.c__BD1_5_f__L5'
p655
(lp656
F0.0
aF0.0
aF0.0
aF0.0
aF0.0
aF0.0
aF0.0
aF0.0
aF627.5494195167868
aF0.0
aF683.9945280437755
aF0.0
aF733.6757153338225
aF0.0
aF0.0
aF0.0
aF0.0
aF0.0
aF0.0
aF0.0
aF0.0
aF0.0
aF0.0
aF0.0
aF0.0
asS'k__Bacteria.p__Proteobacteria.c__Betaproteobacteria.c__Betaproteobacteria_x__L4'
p657
(lp658
F0.0
aF0.0
aF0.0
aF0.0
aF0.0
aF0.0
aF0.0
aF0.0
aF0.0
aF0.0
aF0.0
aF0.0
aF4402.054292002935
aF0.0
aF0.0
aF0.0
aF0.0
aF0.0
aF0.0
aF0.0
aF0.0
aF0.0
aF0.0
aF0.0
aF0.0
asS'k__Bacteria.p__Proteobacteria.c__Deltaproteobacteria.o__Myxococcales'
p659
(lp660
F0.0
aF0.0
aF0.0
aF0.0
aF0.0
aF0.0
aF0.0
aF0.0
aF1255.0988390335735
aF0.0
aF0.0
aF0.0
aF0.0
aF0.0
aF0.0
aF0.0
aF0.0
aF0.0
aF0.0
aF0.0
aF0.0
aF0.0
aF0.0
aF0.0
aF0.0
asS'k__Bacteria.p__Cyanobacteria'
p661
(lp662
F0.0
aF0.0
aF0.0
aF0.0
aF0.0
aF0.0
aF0.0
aF0.0
aF54910.57420771885
aF37013.60329009807
aF1823.9854081167346
aF17039.67446592065
aF1711.9100024455856
aF16434.89254108723
aF33121.91684284708
aF1383.1258644536654
aF3168.3168316831684
aF0.0
aF0.0
aF0.0
aF118096.09339919174
aF0.0
aF0.0
aF0.0
aF0.0
asS'k__Bacteria.p__Firmicutes.c__Clostridia.o__Clostridiales.f__Lachnospiraceae.g__Catonella'
p663
(lp664
F0.0
aF0.0
aF0.0
aF0.0
aF0.0
aF0.0
aF0.0
aF0.0
aF0.0
aF0.0
aF0.0
aF0.0
aF0.0
aF0.0
aF0.0
aF0.0
aF0.0
aF0.0
aF0.0
aF0.0
aF0.0
aF0.0
aF0.0
aF729.1818579553741
aF0.0
asS'k__Bacteria.p__Firmicutes.c__Clostridia.o__Clostridiales.f__Lachnospiraceae.g__Ruminococcus'
p665
(lp666
F710.5300554213444
aF2922.1191716427384
aF1950.4359798072512
aF1926.040061633282
aF0.0
aF3590.944574551132
aF2450.379808870375
aF0.0
aF0.0
aF0.0
aF0.0
aF0.0
aF0.0
aF0.0
aF0.0
aF0.0
aF0.0
aF0.0
aF0.0
aF0.0
aF0.0
aF0.0
aF0.0
aF0.0
aF0.0
asS'k__Bacteria.p__Actinobacteria.c__Coriobacteriia.o__Coriobacteriales.f__Coriobacteriaceae.f__Coriobacteriaceae_g__L6'
p667
(lp668
F0.0
aF0.0
aF0.0
aF0.0
aF0.0
aF468.384074941452
aF245.0379808870375
aF0.0
aF0.0
aF0.0
aF0.0
aF0.0
aF0.0
aF0.0
aF0.0
aF0.0
aF0.0
aF0.0
aF0.0
aF0.0
aF0.0
aF0.0
aF0.0
aF0.0
aF0.0
asS'k__Bacteria.p__Proteobacteria.c__Alphaproteobacteria.o__Rickettsiales.f__mitochondria.g__Cucurbita'
p669
(lp670
F0.0
aF0.0
aF0.0
aF0.0
aF0.0
aF0.0
aF0.0
aF0.0
aF0.0
aF13286.934514394181
aF0.0
aF0.0
aF0.0
aF0.0
aF7047.216349541931
aF0.0
aF0.0
aF0.0
aF0.0
aF0.0
aF0.0
aF0.0
aF0.0
aF0.0
aF0.0
asS'k__Bacteria.p__Firmicutes.c__Bacilli.o__Lactobacillales'
p671
(lp672
F4263.180332528066
aF0.0
aF573.6576411197798
aF0.0
aF0.0
aF312.25604996096797
aF1470.227885322225
aF0.0
aF72481.95795418887
aF47136.981967731735
aF267213.8622891016
aF106561.54628687692
aF165321.594521888
aF250737.46312684365
aF215644.8202959831
aF140683.65935585852
aF133465.34653465348
aF243844.69696969696
aF136712.74961597542
aF238333.33333333334
aF224966.32240682532
aF103120.95498346037
aF142761.61818789702
aF65772.20358757474
aF137276.7857142857
asS'k__Bacteria.p__Proteobacteria.c__Gammaproteobacteria.o__Pseudomonadales.f__Moraxellaceae.g__Enhydrobacter'
p673
(lp674
F0.0
aF0.0
aF0.0
aF0.0
aF0.0
aF0.0
aF0.0
aF0.0
aF6275.4941951678675
aF3163.555836760519
aF3875.968992248061
aF21617.497456765002
aF1222.7928588897041
aF0.0
aF0.0
aF790.3576368306659
aF0.0
aF0.0
aF0.0
aF0.0
aF0.0
aF0.0
aF0.0
aF0.0
aF0.0
asS'k__Bacteria.p__Firmicutes.c__Clostridia'
p675
(lp676
F202358.9597839989
aF325117.52001016383
aF410509.4079853144
aF347329.22444786853
aF450377.07390648563
aF362373.1459797034
aF353099.730458221
aF289822.69998603925
aF49576.40414182616
aF57576.71622904144
aF88691.29046967618
aF111393.69277721261
aF164832.47737833209
aF112094.39528023599
aF157152.92459478506
aF87927.28709741156
aF76039.60396039605
aF91382.57575757575
aF168458.78136200717
aF65555.55555555556
aF75437.80871127077
aF96361.28289946786
aF69207.62286860583
aF83710.07729327696
aF71986.60714285713
asS'k__Bacteria.p__Bacteroidetes.c__Flavobacteriia.o__Flavobacteriales.f__Flavobacteriaceae.g__Capnocytophaga'
p677
(lp678
F0.0
aF0.0
aF0.0
aF0.0
aF0.0
aF0.0
aF0.0
aF0.0
aF6903.043614684655
aF1265.4223347042075
aF2963.9762881896936
aF0.0
aF18341.89288334556
aF0.0
aF0.0
aF1778.3046828689983
aF0.0
aF1420.4545454545455
aF0.0
aF0.0
aF0.0
aF1438.2281029771323
aF668.6726847208292
aF0.0
aF0.0
asS'k__Bacteria.p__Fusobacteria.c__Fusobacteriia.o__Fusobacteriales.f__Leptotrichiaceae.f__Leptotrichiaceae_x__L6'
p679
(lp680
F0.0
aF0.0
aF0.0
aF0.0
aF0.0
aF0.0
aF0.0
aF0.0
aF4079.071226859114
aF0.0
aF0.0
aF0.0
aF0.0
aF0.0
aF0.0
aF0.0
aF0.0
aF0.0
aF0.0
aF0.0
aF0.0
aF0.0
aF0.0
aF0.0
aF0.0
asS'k__Bacteria.p__Firmicutes.c__Clostridia.o__Clostridiales.f__Peptostreptococcaceae.g__Peptostreptococcus'
p681
(lp682
F0.0
aF0.0
aF0.0
aF0.0
aF0.0
aF0.0
aF0.0
aF0.0
aF0.0
aF0.0
aF0.0
aF0.0
aF3179.261433113231
aF0.0
aF0.0
aF0.0
aF0.0
aF0.0
aF0.0
aF0.0
aF0.0
aF0.0
aF0.0
aF0.0
aF0.0
asS'k__Bacteria.p__Bacteroidetes.c___Saprospirae_.o___Saprospirales_'
p683
(lp684
F0.0
aF0.0
aF0.0
aF0.0
aF0.0
aF0.0
aF0.0
aF0.0
aF7844.367743959834
aF4428.978171464727
aF1367.989056087551
aF2797.558494404883
aF0.0
aF0.0
aF0.0
aF0.0
aF0.0
aF0.0
aF0.0
aF0.0
aF0.0
aF0.0
aF0.0
aF0.0
aF0.0
asS'k__Bacteria.p__Verrucomicrobia'
p685
(lp686
F82705.69845104449
aF1143.4379367297672
aF3671.4089031665903
aF25808.93682588598
aF0.0
aF936.768149882904
aF367.5569713305562
aF0.0
aF0.0
aF0.0
aF0.0
aF762.970498474059
aF0.0
aF0.0
aF1409.4432699083864
aF0.0
aF0.0
aF0.0
aF0.0
aF0.0
aF0.0
aF0.0
aF0.0
aF0.0
aF0.0
asS'k__Bacteria.p__Proteobacteria.c__Gammaproteobacteria.o__Pseudomonadales.f__Pseudomonadaceae.f__Pseudomonadaceae_x__L6'
p687
(lp688
F0.0
aF0.0
aF0.0
aF0.0
aF0.0
aF0.0
aF0.0
aF0.0
aF7844.367743959834
aF0.0
aF0.0
aF0.0
aF0.0
aF0.0
aF0.0
aF0.0
aF0.0
aF0.0
aF0.0
aF0.0
aF0.0
aF0.0
aF0.0
aF0.0
aF0.0
asS'k__Bacteria.p__Proteobacteria.c__Gammaproteobacteria.o__Xanthomonadales.f__Xanthomonadaceae.g__Xanthomonas'
p689
(lp690
F0.0
aF0.0
aF0.0
aF0.0
aF0.0
aF0.0
aF0.0
aF0.0
aF21022.905553812358
aF0.0
aF0.0
aF0.0
aF0.0
aF0.0
aF0.0
aF0.0
aF0.0
aF0.0
aF0.0
aF0.0
aF0.0
aF0.0
aF0.0
aF0.0
aF0.0
asS'k__Bacteria.p__Proteobacteria.c__Alphaproteobacteria.o__Rhodobacterales.f__Rhodobacteraceae.g__Rubellimicrobium'
p691
(lp692
F0.0
aF0.0
aF0.0
aF0.0
aF0.0
aF0.0
aF0.0
aF0.0
aF0.0
aF1265.4223347042075
aF683.9945280437755
aF0.0
aF0.0
aF0.0
aF2114.1649048625795
aF0.0
aF0.0
aF0.0
aF0.0
aF0.0
aF0.0
aF0.0
aF0.0
aF0.0
aF0.0
asS'k__Bacteria.p__Bacteroidetes.c___Saprospirae_'
p693
(lp694
F0.0
aF0.0
aF0.0
aF0.0
aF0.0
aF0.0
aF0.0
aF0.0
aF7844.367743959834
aF4428.978171464727
aF1367.989056087551
aF2797.558494404883
aF0.0
aF0.0
aF0.0
aF0.0
aF0.0
aF0.0
aF0.0
aF0.0
aF0.0
aF0.0
aF0.0
aF0.0
aF0.0
asS'k__Bacteria.p__Proteobacteria.c__Gammaproteobacteria.o__Pseudomonadales.f__Moraxellaceae.g__Psychrobacter'
p695
(lp696
F0.0
aF0.0
aF0.0
aF0.0
aF0.0
aF0.0
aF0.0
aF0.0
aF42045.811107624715
aF0.0
aF3419.9726402188776
aF0.0
aF0.0
aF0.0
aF0.0
aF0.0
aF0.0
aF0.0
aF0.0
aF0.0
aF0.0
aF0.0
aF0.0
aF0.0
aF0.0
asS'k__Bacteria.p__Firmicutes.c__Clostridia.o__Clostridiales.f___Tissierellaceae_.g__Anaerococcus'
p697
(lp698
F0.0
aF0.0
aF0.0
aF0.0
aF0.0
aF0.0
aF0.0
aF0.0
aF9413.241292751802
aF13286.934514394181
aF39215.6862745098
aF35350.96642929807
aF10760.577158229395
aF46776.232616940586
aF32417.19520789288
aF1383.1258644536654
aF0.0
aF0.0
aF0.0
aF0.0
aF0.0
aF0.0
aF0.0
aF0.0
aF0.0
asS'k__Bacteria.p__Proteobacteria.c__Deltaproteobacteria.o__Desulfovibrionales.f__Desulfovibrionaceae'
p699
(lp700
F8810.572687224672
aF3684.411129462583
aF4015.6034878384585
aF10143.81099126862
aF5882.35294117647
aF8274.785323965652
aF3798.0887037490816
aF12843.780538880354
aF0.0
aF0.0
aF0.0
aF0.0
aF0.0
aF0.0
aF0.0
aF0.0
aF0.0
aF0.0
aF0.0
aF0.0
aF0.0
aF0.0
aF0.0
aF0.0
aF0.0
asS'k__Bacteria.p__Proteobacteria.c__Alphaproteobacteria.o__Sphingomonadales.f__Sphingomonadaceae'
p701
(lp702
F0.0
aF0.0
aF0.0
aF0.0
aF0.0
aF0.0
aF0.0
aF0.0
aF17257.609036711638
aF9490.667510281557
aF5927.952576379387
aF5340.793489318413
aF1467.351430667645
aF7585.3350189633375
aF11980.267794221281
aF0.0
aF0.0
aF0.0
aF0.0
aF0.0
aF0.0
aF0.0
aF0.0
aF0.0
aF0.0
asS'k__Bacteria.p__Proteobacteria.c__Epsilonproteobacteria.o__Campylobacterales.f__Campylobacteraceae.g__Arcobacter'
p703
(lp704
F0.0
aF0.0
aF0.0
aF0.0
aF0.0
aF0.0
aF0.0
aF0.0
aF1255.0988390335735
aF0.0
aF0.0
aF0.0
aF0.0
aF0.0
aF0.0
aF0.0
aF0.0
aF0.0
aF0.0
aF0.0
aF0.0
aF0.0
aF0.0
aF0.0
aF0.0
asS'k__Bacteria.p__Proteobacteria.c__Betaproteobacteria.o__Burkholderiales'
p705
(lp706
F0.0
aF13594.206581120567
aF17668.655346489217
aF4494.093477144324
aF7239.8190045248875
aF15456.674473067917
aF612.5949522175938
aF1535.6694122574338
aF52400.3765296517
aF17399.55710218286
aF10031.91974464204
aF22126.14445574771
aF50868.18292981169
aF9692.37252423093
aF19027.484143763213
aF29638.41138114997
aF0.0
aF2840.909090909091
aF0.0
aF0.0
aF0.0
aF431.46843089313967
aF835.8408559010365
aF3208.400175003646
aF0.0
asS'k__Bacteria.p__Bacteroidetes.c__Flavobacteriia.o__Flavobacteriales.f___Weeksellaceae_'
p707
(lp708
F0.0
aF0.0
aF0.0
aF0.0
aF0.0
aF0.0
aF0.0
aF0.0
aF29494.822717288982
aF6010.7560898449865
aF2051.9835841313266
aF4577.8229908443545
aF5869.40572267058
aF0.0
aF7047.216349541931
aF2371.0729104919974
aF0.0
aF0.0
aF0.0
aF0.0
aF2245.17287831163
aF1869.6965338702719
aF1003.0090270812439
aF1166.6909727285986
aF0.0
asS'k__Bacteria.p__Bacteroidetes.c__Sphingobacteriia.o__Sphingobacteriales.f__Sphingobacteriaceae'
p709
(lp710
F0.0
aF0.0
aF0.0
aF0.0
aF0.0
aF0.0
aF0.0
aF0.0
aF14119.861939127704
aF63587.47231888643
aF1595.9872321021428
aF0.0
aF0.0
aF5899.705014749263
aF6342.494714587738
aF0.0
aF0.0
aF0.0
aF0.0
aF0.0
aF0.0
aF0.0
aF0.0
aF0.0
aF0.0
asS'k__Bacteria.p__Bacteroidetes.c__Bacteroidia.o__Bacteroidales.f___Paraprevotellaceae_.f___Paraprevotellaceae__g__L6'
p711
(lp712
F0.0
aF0.0
aF0.0
aF0.0
aF0.0
aF0.0
aF0.0
aF0.0
aF1255.0988390335735
aF0.0
aF0.0
aF0.0
aF0.0
aF0.0
aF0.0
aF0.0
aF0.0
aF0.0
aF0.0
aF0.0
aF0.0
aF0.0
aF0.0
aF0.0
aF0.0
asS'k__Bacteria.p__Firmicutes.c__Clostridia.o__Clostridiales.f__Lachnospiraceae.g__Roseburia'
p713
(lp714
F18757.993463123494
aF38114.59789099224
aF14570.904084442405
aF32229.07036466358
aF44947.209653092
aF32630.757220921154
aF48640.039206076945
aF26385.592628786813
aF0.0
aF0.0
aF0.0
aF0.0
aF0.0
aF0.0
aF0.0
aF0.0
aF0.0
aF0.0
aF0.0
aF0.0
aF0.0
aF0.0
aF0.0
aF0.0
aF0.0
asS'k__Bacteria.p__Bacteroidetes.c__Bacteroidia.o__Bacteroidales.f__Rikenellaceae'
p715
(lp716
F0.0
aF381.1459789099224
aF573.6576411197798
aF385.2080123266564
aF29110.105580693817
aF44028.103044496485
aF35162.95025728988
aF17590.39508585788
aF0.0
aF0.0
aF0.0
aF0.0
aF0.0
aF0.0
aF0.0
aF0.0
aF0.0
aF0.0
aF0.0
aF0.0
aF0.0
aF0.0
aF0.0
aF0.0
aF0.0
asS'k__Bacteria.p__Bacteroidetes.c__Bacteroidia.o__Bacteroidales.f___Odoribacteraceae_'
p717
(lp718
F0.0
aF0.0
aF0.0
aF0.0
aF5429.8642533936645
aF7494.145199063232
aF4165.645675079637
aF0.0
aF0.0
aF0.0
aF0.0
aF0.0
aF0.0
aF0.0
aF0.0
aF0.0
aF0.0
aF0.0
aF0.0
aF0.0
aF0.0
aF0.0
aF0.0
aF0.0
aF0.0
asS'k__Bacteria.p__SR1'
p719
(lp720
F0.0
aF0.0
aF0.0
aF0.0
aF0.0
aF0.0
aF0.0
aF0.0
aF1568.8735487919669
aF1581.7779183802595
aF0.0
aF0.0
aF0.0
aF0.0
aF0.0
aF0.0
aF0.0
aF0.0
aF0.0
aF0.0
aF0.0
aF0.0
aF0.0
aF0.0
aF0.0
asS'k__Bacteria.p__Actinobacteria.c__Actinobacteria.o__Actinomycetales.f__Brevibacteriaceae'
p721
(lp722
F0.0
aF0.0
aF0.0
aF0.0
aF0.0
aF0.0
aF0.0
aF0.0
aF0.0
aF0.0
aF0.0
aF762.970498474059
aF0.0
aF0.0
aF0.0
aF0.0
aF0.0
aF0.0
aF0.0
aF0.0
aF0.0
aF0.0
aF0.0
aF0.0
aF0.0
asS'k__Bacteria.p__Proteobacteria.c__Betaproteobacteria.o__Burkholderiales.f__Oxalobacteraceae.g__Janthinobacterium'
p723
(lp724
F0.0
aF0.0
aF0.0
aF0.0
aF0.0
aF0.0
aF0.0
aF0.0
aF8471.91716347662
aF0.0
aF0.0
aF0.0
aF0.0
aF0.0
aF19027.484143763213
aF0.0
aF0.0
aF0.0
aF0.0
aF0.0
aF0.0
aF0.0
aF0.0
aF0.0
aF0.0
asS'k__Bacteria.p__Proteobacteria.c__Betaproteobacteria'
p725
(lp726
F0.0
aF13594.206581120567
aF17668.655346489217
aF5136.106831022085
aF7239.8190045248875
aF15456.674473067917
aF612.5949522175938
aF1535.6694122574338
aF96642.61060558514
aF32900.980702309396
aF34883.72093023255
aF37131.23092573754
aF112496.94301785277
aF60682.68015170671
aF52149.40098661029
aF266350.5236119344
aF189702.9702970297
aF227272.72727272726
aF43522.785458269325
aF282777.7777777778
aF8082.622361921869
aF193297.85704012655
aF289200.93614175863
aF517719.11914831557
aF248883.92857142858
asS'k__Bacteria.p__Firmicutes.c__Bacilli.o__Bacillales'
p727
(lp728
F0.0
aF0.0
aF0.0
aF0.0
aF0.0
aF0.0
aF0.0
aF0.0
aF15061.186068402883
aF0.0
aF683.9945280437755
aF1271.617497456765
aF0.0
aF0.0
aF0.0
aF0.0
aF0.0
aF0.0
aF0.0
aF0.0
aF0.0
aF0.0
aF0.0
aF0.0
aF0.0
asS'k__Bacteria.k__Bacteria_x__L2.k__Bacteria_x__L3.k__Bacteria_x__L4.k__Bacteria_x__L5'
p729
(lp730
F0.0
aF0.0
aF0.0
aF0.0
aF0.0
aF0.0
aF0.0
aF0.0
aF15688.735487919668
aF16134.134767478647
aF2279.981760145918
aF6358.087487283826
aF0.0
aF842.8150021070376
aF7047.216349541931
aF0.0
aF0.0
aF0.0
aF0.0
aF0.0
aF0.0
aF0.0
aF0.0
aF0.0
aF0.0
asS'k__Bacteria.p__FBP'
p731
(lp732
F0.0
aF0.0
aF0.0
aF0.0
aF0.0
aF0.0
aF0.0
aF0.0
aF0.0
aF0.0
aF455.99635202918364
aF0.0
aF0.0
aF0.0
aF0.0
aF0.0
aF0.0
aF0.0
aF0.0
aF0.0
aF0.0
aF0.0
aF0.0
aF0.0
aF0.0
asS'k__Bacteria.p__Bacteroidetes.c__Bacteroidia.o__Bacteroidales.f__Porphyromonadaceae'
p733
(lp734
F0.0
aF0.0
aF0.0
aF2439.6507447354907
aF28959.27601809955
aF76658.86026541764
aF26341.58294535653
aF16892.36353483177
aF19454.03200502039
aF6959.822840873142
aF4559.963520291836
aF4323.499491353002
aF23722.18146246026
aF3792.6675094816687
aF1409.4432699083864
aF5334.914048606995
aF1980.1980198019803
aF0.0
aF0.0
aF2222.222222222222
aF0.0
aF5033.798360419963
aF5683.717820127048
aF5833.454863642993
aF8370.535714285714
asS'k__Bacteria.p__Fusobacteria.c__Fusobacteriia.o__Fusobacteriales'
p735
(lp736
F426.3180332528067
aF0.0
aF0.0
aF3980.4827940421164
aF0.0
aF0.0
aF0.0
aF0.0
aF35456.54220269845
aF28472.002530844675
aF37847.69721842225
aF49338.758901322486
aF149669.8459280998
aF11799.410029498526
aF33826.63847780127
aF132582.4935783442
aF209108.91089108912
aF103693.18181818182
aF58883.76856118792
aF26111.111111111113
aF82622.361921868
aF103552.42341435351
aF163657.63958542293
aF97418.69622283797
aF98214.28571428571
asS'k__Bacteria.p__Fusobacteria.c__Fusobacteriia.o__Fusobacteriales.f__Leptotrichiaceae.g__Streptobacillus'
p737
(lp738
F0.0
aF0.0
aF0.0
aF0.0
aF0.0
aF0.0
aF0.0
aF0.0
aF11609.664261060556
aF17715.912685858908
aF11399.908800729592
aF30010.172939979653
aF0.0
aF3792.6675094816687
aF13389.71106412967
aF0.0
aF0.0
aF0.0
aF0.0
aF0.0
aF0.0
aF0.0
aF0.0
aF0.0
aF0.0
asS'k__Bacteria.p__Fusobacteria.c__Fusobacteriia.o__Fusobacteriales.f__Fusobacteriaceae'
p739
(lp740
F426.3180332528067
aF0.0
aF0.0
aF3980.4827940421164
aF0.0
aF0.0
aF0.0
aF0.0
aF19767.806714778784
aF10756.089844985765
aF22343.82124943
aF18056.968463886064
aF121056.4930300807
aF8006.742520016856
aF20436.9274136716
aF124876.5066192452
aF199603.96039603962
aF96117.42424242424
aF54787.50640040963
aF23333.333333333336
aF79030.08531656938
aF92190.42140083417
aF151788.69943162822
aF90710.22312964854
aF94308.03571428571
asS'k__Bacteria.p__Firmicutes.c__Clostridia.o__Clostridiales.f__Peptostreptococcaceae.f__Peptostreptococcaceae_g__L6'
p741
(lp742
F0.0
aF0.0
aF0.0
aF0.0
aF0.0
aF0.0
aF0.0
aF0.0
aF1255.0988390335735
aF0.0
aF0.0
aF0.0
aF2934.70286133529
aF0.0
aF0.0
aF1580.7152736613318
aF0.0
aF0.0
aF0.0
aF0.0
aF0.0
aF0.0
aF1671.681711802073
aF2625.0546886393468
aF1116.0714285714284
asS'k__Bacteria.p__GN02.c__BD1_5'
p743
(lp744
F0.0
aF0.0
aF0.0
aF0.0
aF0.0
aF0.0
aF0.0
aF0.0
aF627.5494195167868
aF0.0
aF683.9945280437755
aF0.0
aF733.6757153338225
aF0.0
aF0.0
aF0.0
aF0.0
aF0.0
aF0.0
aF0.0
aF0.0
aF0.0
aF0.0
aF0.0
aF0.0
asS'k__Bacteria.p__Firmicutes.c__Bacilli.c__Bacilli_x__L4.c__Bacilli_x__L5'
p745
(lp746
F0.0
aF0.0
aF0.0
aF0.0
aF0.0
aF1092.896174863388
aF735.1139426611124
aF0.0
aF15374.960778161276
aF30370.136032900984
aF51755.585955312345
aF20854.526958290946
aF25678.650036683786
aF134007.58533501896
aF194503.1712473573
aF0.0
aF0.0
aF0.0
aF0.0
aF0.0
aF0.0
aF0.0
aF0.0
aF0.0
aF0.0
asS'k__Bacteria.p__Tenericutes.c__Mollicutes.o__Mycoplasmatales.f__Mycoplasmataceae'
p747
(lp748
F0.0
aF0.0
aF0.0
aF0.0
aF0.0
aF0.0
aF0.0
aF0.0
aF3451.5218073423275
aF949.0667510281557
aF0.0
aF2543.23499491353
aF0.0
aF0.0
aF0.0
aF0.0
aF0.0
aF0.0
aF0.0
aF0.0
aF0.0
aF0.0
aF0.0
aF0.0
aF0.0
asS'k__Bacteria.p__Firmicutes.c__Clostridia.o__Clostridiales.f__Lachnospiraceae.g__Clostridium'
p749
(lp750
F17905.35739661788
aF6987.676280015245
aF5736.576411197797
aF4494.093477144324
aF1357.4660633484161
aF1405.152224824356
aF2940.45577064445
aF10191.26064498115
aF0.0
aF0.0
aF0.0
aF508.646998982706
aF1711.9100024455856
aF0.0
aF0.0
aF0.0
aF0.0
aF0.0
aF0.0
aF0.0
aF0.0
aF0.0
aF0.0
aF0.0
aF0.0
asS'k__Bacteria.p__Firmicutes.c__Bacilli'
p751
(lp752
F4263.180332528066
aF381.1459789099224
aF573.6576411197798
aF0.0
aF0.0
aF1405.152224824356
aF2205.3418279833377
aF0.0
aF107938.50015688733
aF77507.1180006327
aF330825.35339717276
aF132248.21973550358
aF194668.6231352409
aF397387.2734934681
aF410147.9915433405
aF150365.5404070342
aF151287.1287128713
aF250473.48484848486
aF144905.273937532
aF250000.0
aF237988.32510103277
aF104559.1830864375
aF148779.6723503845
aF67813.9127898498
aF147879.46428571426
asS'k__Bacteria.p__Spirochaetes.c__Spirochaetes.o__Spirochaetales'
p753
(lp754
F0.0
aF0.0
aF0.0
aF0.0
aF0.0
aF0.0
aF0.0
aF0.0
aF0.0
aF0.0
aF0.0
aF0.0
aF12961.604304230863
aF0.0
aF0.0
aF0.0
aF0.0
aF0.0
aF0.0
aF0.0
aF0.0
aF0.0
aF0.0
aF0.0
aF0.0
asS'k__Bacteria.p__Proteobacteria.c__Betaproteobacteria.o__Methylophilales'
p755
(lp756
F0.0
aF0.0
aF0.0
aF0.0
aF0.0
aF0.0
aF0.0
aF0.0
aF0.0
aF0.0
aF0.0
aF2034.587995930824
aF0.0
aF0.0
aF0.0
aF0.0
aF0.0
aF0.0
aF0.0
aF0.0
aF0.0
aF0.0
aF0.0
aF0.0
aF0.0
asS'k__Bacteria.p__Proteobacteria.c__Gammaproteobacteria.o__Pseudomonadales.f__Pseudomonadaceae.g__Pseudomonas'
p757
(lp758
F0.0
aF0.0
aF0.0
aF0.0
aF0.0
aF0.0
aF0.0
aF0.0
aF36711.64104173203
aF473584.3087630497
aF15959.872321021428
aF12716.174974567652
aF0.0
aF128107.8803202697
aF29598.308668076108
aF0.0
aF0.0
aF0.0
aF0.0
aF0.0
aF0.0
aF0.0
aF0.0
aF0.0
aF0.0
asS'k__Bacteria.p__Chloroflexi'
p759
(lp760
F0.0
aF0.0
aF0.0
aF0.0
aF0.0
aF0.0
aF0.0
aF0.0
aF941.3241292751802
aF0.0
aF0.0
aF0.0
aF0.0
aF0.0
aF0.0
aF0.0
aF0.0
aF0.0
aF0.0
aF0.0
aF0.0
aF0.0
aF0.0
aF0.0
aF0.0
asS'k__Bacteria.p__Verrucomicrobia.c__Verrucomicrobiae.o__Verrucomicrobiales.f__Verrucomicrobiaceae.g__Luteolibacter'
p761
(lp762
F0.0
aF0.0
aF0.0
aF0.0
aF0.0
aF0.0
aF0.0
aF0.0
aF0.0
aF0.0
aF0.0
aF762.970498474059
aF0.0
aF0.0
aF0.0
aF0.0
aF0.0
aF0.0
aF0.0
aF0.0
aF0.0
aF0.0
aF0.0
aF0.0
aF0.0
asS'k__Bacteria.p__Proteobacteria.c__Alphaproteobacteria.o__Rhizobiales.f__Rhizobiaceae'
p763
(lp764
F0.0
aF0.0
aF0.0
aF0.0
aF0.0
aF0.0
aF0.0
aF0.0
aF0.0
aF6959.822840873142
aF0.0
aF0.0
aF0.0
aF0.0
aF0.0
aF0.0
aF0.0
aF0.0
aF0.0
aF0.0
aF0.0
aF0.0
aF0.0
aF0.0
aF0.0
asS'k__Bacteria.p__Chloroflexi.c__Ellin6529.c__Ellin6529_o__L4.c__Ellin6529_f__L5'
p765
(lp766
F0.0
aF0.0
aF0.0
aF0.0
aF0.0
aF0.0
aF0.0
aF0.0
aF941.3241292751802
aF0.0
aF0.0
aF0.0
aF0.0
aF0.0
aF0.0
aF0.0
aF0.0
aF0.0
aF0.0
aF0.0
aF0.0
aF0.0
aF0.0
aF0.0
aF0.0
asS'k__Bacteria.p__Firmicutes.c__Bacilli.o__Bacillales.f__Alicyclobacillaceae.g__Alicyclobacillus'
p767
(lp768
F0.0
aF0.0
aF0.0
aF0.0
aF0.0
aF0.0
aF0.0
aF0.0
aF0.0
aF0.0
aF683.9945280437755
aF1271.617497456765
aF0.0
aF0.0
aF0.0
aF0.0
aF0.0
aF0.0
aF0.0
aF0.0
aF0.0
aF0.0
aF0.0
aF0.0
aF0.0
asS'k__Bacteria.p__Verrucomicrobia.c__Verrucomicrobiae'
p769
(lp770
F82705.69845104449
aF1143.4379367297672
aF3671.4089031665903
aF25808.93682588598
aF0.0
aF936.768149882904
aF367.5569713305562
aF0.0
aF0.0
aF0.0
aF0.0
aF762.970498474059
aF0.0
aF0.0
aF0.0
aF0.0
aF0.0
aF0.0
aF0.0
aF0.0
aF0.0
aF0.0
aF0.0
aF0.0
aF0.0
asS'k__Bacteria.p__Bacteroidetes.c__Sphingobacteriia.o__Sphingobacteriales'
p771
(lp772
F0.0
aF0.0
aF0.0
aF0.0
aF0.0
aF0.0
aF0.0
aF0.0
aF14119.861939127704
aF63587.47231888643
aF1595.9872321021428
aF0.0
aF0.0
aF5899.705014749263
aF6342.494714587738
aF0.0
aF0.0
aF0.0
aF0.0
aF0.0
aF0.0
aF0.0
aF0.0
aF0.0
aF0.0
asS'k__Bacteria.p__Proteobacteria.c__Gammaproteobacteria.o__Cardiobacteriales.f__Cardiobacteriaceae'
p773
(lp774
F0.0
aF0.0
aF0.0
aF0.0
aF0.0
aF0.0
aF0.0
aF0.0
aF1568.8735487919669
aF0.0
aF0.0
aF0.0
aF8804.10858400587
aF0.0
aF0.0
aF0.0
aF0.0
aF0.0
aF0.0
aF0.0
aF0.0
aF0.0
aF0.0
aF0.0
aF0.0
asS'k__Bacteria.p__Proteobacteria.c__Betaproteobacteria.o__Neisseriales.f__Neisseriaceae.g__Vogesella'
p775
(lp776
F0.0
aF0.0
aF0.0
aF0.0
aF0.0
aF0.0
aF0.0
aF0.0
aF0.0
aF0.0
aF0.0
aF0.0
aF0.0
aF0.0
aF0.0
aF1975.8940920766647
aF0.0
aF0.0
aF0.0
aF0.0
aF0.0
aF0.0
aF0.0
aF0.0
aF0.0
asS'k__Bacteria.p__Proteobacteria.c__Gammaproteobacteria.o__Pseudomonadales.f__Moraxellaceae'
p777
(lp778
F0.0
aF0.0
aF0.0
aF0.0
aF0.0
aF0.0
aF0.0
aF0.0
aF101976.78067147786
aF22461.246440999686
aF25079.799361605103
aF231180.06103763988
aF2201.0271460014674
aF0.0
aF0.0
aF5532.503457814661
aF0.0
aF0.0
aF0.0
aF0.0
aF0.0
aF0.0
aF0.0
aF0.0
aF0.0
asS'k__Bacteria.p__Firmicutes.c__Bacilli.o__Lactobacillales.f__Streptococcaceae.g__Streptococcus'
p779
(lp780
F4263.180332528066
aF0.0
aF573.6576411197798
aF0.0
aF0.0
aF312.25604996096797
aF1470.227885322225
aF0.0
aF50517.72827110133
aF39860.80354318254
aF212722.29822161418
aF95879.95930824008
aF157740.27879677183
aF190054.78297513694
aF162085.9760394644
aF130211.42066785222
aF121980.19801980197
aF226799.24242424243
aF124935.99590373784
aF223333.3333333333
aF198473.28244274808
aF99093.9162951244
aF121698.42861919092
aF60667.93058188712
aF114397.32142857142
asS'k__Bacteria.p__Fusobacteria.c__Fusobacteriia.o__Fusobacteriales.f__Fusobacteriaceae.g__Fusobacterium'
p781
(lp782
F426.3180332528067
aF0.0
aF0.0
aF3980.4827940421164
aF0.0
aF0.0
aF0.0
aF0.0
aF13492.312519610916
aF10756.089844985765
aF22343.82124943
aF18056.968463886064
aF121056.4930300807
aF8006.742520016856
aF20436.9274136716
aF124876.5066192452
aF199603.96039603962
aF96117.42424242424
aF54787.50640040963
aF23333.333333333336
aF79030.08531656938
aF92190.42140083417
aF151788.69943162822
aF90710.22312964854
aF94308.03571428571
asS'k__Bacteria.p__Proteobacteria.c__Gammaproteobacteria.o__Aeromonadales'
p783
(lp784
F0.0
aF0.0
aF0.0
aF0.0
aF0.0
aF0.0
aF0.0
aF0.0
aF5020.395356134294
aF0.0
aF0.0
aF0.0
aF0.0
aF0.0
aF0.0
aF0.0
aF0.0
aF0.0
aF0.0
aF0.0
aF0.0
aF0.0
aF0.0
aF0.0
aF0.0
asS'k__Bacteria.p__Actinobacteria.c__Actinobacteria.o__Actinomycetales.f__Nocardioidaceae.g__Aeromicrobium'
p785
(lp786
F0.0
aF0.0
aF0.0
aF0.0
aF0.0
aF0.0
aF0.0
aF0.0
aF0.0
aF0.0
aF0.0
aF0.0
aF0.0
aF3792.6675094816687
aF0.0
aF0.0
aF0.0
aF0.0
aF0.0
aF0.0
aF0.0
aF0.0
aF0.0
aF0.0
aF0.0
asS'k__Bacteria.p__Bacteroidetes.c__Bacteroidia.o__Bacteroidales.f___Paraprevotellaceae_.f___Paraprevotellaceae__x__L6'
p787
(lp788
F0.0
aF0.0
aF0.0
aF0.0
aF0.0
aF0.0
aF0.0
aF0.0
aF0.0
aF0.0
aF0.0
aF0.0
aF4646.612863780875
aF0.0
aF0.0
aF0.0
aF0.0
aF0.0
aF0.0
aF0.0
aF0.0
aF431.46843089313967
aF0.0
aF0.0
aF0.0
asS'k__Bacteria.p__Proteobacteria.c__Gammaproteobacteria.o__Cardiobacteriales.f__Cardiobacteriaceae.g__Cardiobacterium'
p789
(lp790
F0.0
aF0.0
aF0.0
aF0.0
aF0.0
aF0.0
aF0.0
aF0.0
aF0.0
aF0.0
aF0.0
aF0.0
aF8804.10858400587
aF0.0
aF0.0
aF0.0
aF0.0
aF0.0
aF0.0
aF0.0
aF0.0
aF0.0
aF0.0
aF0.0
aF0.0
asS'k__Bacteria.p__Actinobacteria.c__Actinobacteria.o__Actinomycetales.o__Actinomycetales_f__L5.o__Actinomycetales_g__L6'
p791
(lp792
F0.0
aF0.0
aF0.0
aF0.0
aF0.0
aF0.0
aF0.0
aF0.0
aF0.0
aF0.0
aF0.0
aF1780.264496439471
aF0.0
aF0.0
aF0.0
aF0.0
aF0.0
aF0.0
aF0.0
aF0.0
aF0.0
aF0.0
aF0.0
aF0.0
aF0.0
asS'k__Bacteria.p__Firmicutes.c__Clostridia.o__Clostridiales.f___Tissierellaceae_.g__Peptoniphilus'
p793
(lp794
F0.0
aF0.0
aF0.0
aF0.0
aF0.0
aF0.0
aF0.0
aF1116.85048164177
aF4079.071226859114
aF9807.02309395761
aF10715.914272685815
aF26703.967446592065
aF8314.991440449989
aF25705.857564264643
aF51444.679351656094
aF790.3576368306659
aF0.0
aF0.0
aF0.0
aF0.0
aF0.0
aF0.0
aF0.0
aF0.0
aF0.0
asS'k__Bacteria.p__Actinobacteria.c__Actinobacteria.o__Actinomycetales.f__Brevibacteriaceae.g__Brevibacterium'
p795
(lp796
F0.0
aF0.0
aF0.0
aF0.0
aF0.0
aF0.0
aF0.0
aF0.0
aF0.0
aF0.0
aF0.0
aF762.970498474059
aF0.0
aF0.0
aF0.0
aF0.0
aF0.0
aF0.0
aF0.0
aF0.0
aF0.0
aF0.0
aF0.0
aF0.0
aF0.0
asS'k__Bacteria.p__Proteobacteria.c__Alphaproteobacteria.o__Rhodospirillales.f__Acetobacteraceae'
p797
(lp798
F0.0
aF0.0
aF0.0
aF0.0
aF0.0
aF0.0
aF0.0
aF0.0
aF0.0
aF0.0
aF455.99635202918364
aF0.0
aF0.0
aF0.0
aF0.0
aF0.0
aF0.0
aF0.0
aF0.0
aF0.0
aF0.0
aF0.0
aF0.0
aF0.0
aF0.0
asS'k__Bacteria.p__Proteobacteria.c__Deltaproteobacteria.o__Myxococcales.o__Myxococcales_x__L5.o__Myxococcales_x__L6'
p799
(lp800
F0.0
aF0.0
aF0.0
aF0.0
aF0.0
aF0.0
aF0.0
aF0.0
aF1255.0988390335735
aF0.0
aF0.0
aF0.0
aF0.0
aF0.0
aF0.0
aF0.0
aF0.0
aF0.0
aF0.0
aF0.0
aF0.0
aF0.0
aF0.0
aF0.0
aF0.0
asS'k__Bacteria.p__Proteobacteria.c__Gammaproteobacteria.o__Legionellales.f__Legionellaceae.g__Tatlockia'
p801
(lp802
F0.0
aF0.0
aF0.0
aF0.0
aF0.0
aF0.0
aF0.0
aF0.0
aF0.0
aF632.7111673521038
aF0.0
aF0.0
aF0.0
aF0.0
aF0.0
aF0.0
aF0.0
aF0.0
aF0.0
aF0.0
aF0.0
aF0.0
aF0.0
aF0.0
aF0.0
asS'k__Bacteria.p__Firmicutes.c__Clostridia.o__Clostridiales.f___Tissierellaceae_.g__ph2'
p803
(lp804
F0.0
aF0.0
aF0.0
aF0.0
aF0.0
aF0.0
aF0.0
aF0.0
aF0.0
aF0.0
aF0.0
aF0.0
aF1222.7928588897041
aF0.0
aF7751.937984496124
aF0.0
aF0.0
aF0.0
aF0.0
aF0.0
aF0.0
aF0.0
aF0.0
aF0.0
aF0.0
asS'k__Bacteria.p__Proteobacteria.c__Gammaproteobacteria.o__Aeromonadales.f__Succinivibrionaceae.g__Anaerobiospirillum'
p805
(lp806
F0.0
aF0.0
aF0.0
aF0.0
aF0.0
aF0.0
aF0.0
aF0.0
aF941.3241292751802
aF0.0
aF0.0
aF0.0
aF0.0
aF0.0
aF0.0
aF0.0
aF0.0
aF0.0
aF0.0
aF0.0
aF0.0
aF0.0
aF0.0
aF0.0
aF0.0
asS'k__Bacteria.p__Proteobacteria.c__Alphaproteobacteria.o__Rhizobiales.f__Rhizobiaceae.g__Rhizobium'
p807
(lp808
F0.0
aF0.0
aF0.0
aF0.0
aF0.0
aF0.0
aF0.0
aF0.0
aF0.0
aF6959.822840873142
aF0.0
aF0.0
aF0.0
aF0.0
aF0.0
aF0.0
aF0.0
aF0.0
aF0.0
aF0.0
aF0.0
aF0.0
aF0.0
aF0.0
aF0.0
asS'k__Bacteria.p__Proteobacteria.c__Gammaproteobacteria'
p809
(lp810
F35526.502771067215
aF23885.14801168847
aF0.0
aF4879.301489470981
aF754.1478129713424
aF0.0
aF1347.7088948787064
aF8376.378612313274
aF337307.8129902728
aF531161.0249920912
aF80939.35248518009
aF270091.55645981693
aF55514.795793592566
aF180362.41045090603
aF71176.8851303735
aF238885.59573206876
aF154455.44554455444
aF169034.0909090909
aF130056.3236047107
aF258888.8888888889
aF237539.29052537045
aF104127.71465554436
aF215814.10899364765
aF137086.18929561033
aF296875.0
asS'k__Bacteria.p__Firmicutes.c__Bacilli.o__Lactobacillales.f__Carnobacteriaceae'
p811
(lp812
F0.0
aF0.0
aF0.0
aF0.0
aF0.0
aF0.0
aF0.0
aF0.0
aF0.0
aF0.0
aF4787.961696306428
aF2288.9114954221773
aF2690.1442895573487
aF3792.6675094816687
aF0.0
aF10472.238688006322
aF11485.148514851486
aF17045.454545454544
aF11776.753712237583
aF15000.0
aF26493.039964077234
aF4027.03868833597
aF21063.189568706122
aF5104.273005687618
aF22879.464285714283
asS'k__Bacteria.p__Bacteroidetes.c__Cytophagia.o__Cytophagales.f__Cytophagaceae.g__Dyadobacter'
p813
(lp814
F0.0
aF0.0
aF0.0
aF0.0
aF0.0
aF0.0
aF0.0
aF0.0
aF0.0
aF0.0
aF1139.990880072959
aF0.0
aF0.0
aF0.0
aF0.0
aF0.0
aF0.0
aF0.0
aF0.0
aF0.0
aF0.0
aF0.0
aF0.0
aF0.0
aF0.0
asS'k__Bacteria.p__Firmicutes.c__Clostridia.o__Clostridiales.f__Veillonellaceae.g__Selenomonas'
p815
(lp816
F0.0
aF0.0
aF0.0
aF0.0
aF0.0
aF0.0
aF0.0
aF0.0
aF0.0
aF0.0
aF0.0
aF0.0
aF22743.947175348498
aF0.0
aF0.0
aF0.0
aF0.0
aF0.0
aF0.0
aF0.0
aF0.0
aF0.0
aF0.0
aF1312.5273443196734
aF0.0
asS'k__Bacteria.p__Bacteroidetes.c__Cytophagia.o__Cytophagales'
p817
(lp818
F0.0
aF0.0
aF0.0
aF0.0
aF0.0
aF0.0
aF0.0
aF0.0
aF2510.197678067147
aF1898.1335020563115
aF1823.9854081167346
aF1780.264496439471
aF2445.5857177794082
aF0.0
aF0.0
aF0.0
aF0.0
aF0.0
aF0.0
aF0.0
aF0.0
aF0.0
aF0.0
aF0.0
aF0.0
asS'k__Bacteria.p___Thermi_.c__Deinococci.o__Deinococcales.f__Deinococcaceae.g__Deinococcus'
p819
(lp820
F0.0
aF0.0
aF0.0
aF0.0
aF0.0
aF0.0
aF0.0
aF0.0
aF0.0
aF0.0
aF1595.9872321021428
aF1271.617497456765
aF0.0
aF0.0
aF0.0
aF0.0
aF0.0
aF0.0
aF0.0
aF0.0
aF0.0
aF0.0
aF0.0
aF0.0
aF0.0
asS'k__Bacteria.p__Firmicutes.c__Bacilli.o__Bacillales.f__Alicyclobacillaceae'
p821
(lp822
F0.0
aF0.0
aF0.0
aF0.0
aF0.0
aF0.0
aF0.0
aF0.0
aF0.0
aF0.0
aF683.9945280437755
aF1271.617497456765
aF0.0
aF0.0
aF0.0
aF0.0
aF0.0
aF0.0
aF0.0
aF0.0
aF0.0
aF0.0
aF0.0
aF0.0
aF0.0
asS'k__Bacteria.p__Actinobacteria.c__Actinobacteria.o__Actinomycetales.f__Dermabacteraceae.g__Dermabacter'
p823
(lp824
F0.0
aF0.0
aF0.0
aF0.0
aF0.0
aF0.0
aF0.0
aF0.0
aF0.0
aF0.0
aF0.0
aF0.0
aF489.1171435558817
aF0.0
aF0.0
aF0.0
aF0.0
aF0.0
aF0.0
aF0.0
aF0.0
aF0.0
aF0.0
aF0.0
aF0.0
asS'k__Bacteria.p__Proteobacteria.c__Gammaproteobacteria.o__Pseudomonadales.f__Pseudomonadaceae'
p825
(lp826
F0.0
aF0.0
aF0.0
aF0.0
aF0.0
aF0.0
aF0.0
aF0.0
aF44556.00878569186
aF473584.3087630497
aF15959.872321021428
aF12716.174974567652
aF0.0
aF128107.8803202697
aF29598.308668076108
aF0.0
aF0.0
aF0.0
aF0.0
aF0.0
aF0.0
aF0.0
aF0.0
aF0.0
aF0.0
asS'k__Bacteria.p__Tenericutes.c__Mollicutes.o__Mycoplasmatales'
p827
(lp828
F0.0
aF0.0
aF0.0
aF0.0
aF0.0
aF0.0
aF0.0
aF0.0
aF3451.5218073423275
aF949.0667510281557
aF0.0
aF2543.23499491353
aF0.0
aF0.0
aF0.0
aF0.0
aF0.0
aF0.0
aF0.0
aF0.0
aF0.0
aF0.0
aF0.0
aF0.0
aF0.0
asS'k__Bacteria.p__Firmicutes.c__Bacilli.o__Lactobacillales.f__Carnobacteriaceae.f__Carnobacteriaceae_x__L6'
p829
(lp830
F0.0
aF0.0
aF0.0
aF0.0
aF0.0
aF0.0
aF0.0
aF0.0
aF0.0
aF0.0
aF4787.961696306428
aF2288.9114954221773
aF2690.1442895573487
aF0.0
aF0.0
aF10472.238688006322
aF11485.148514851486
aF17045.454545454544
aF11776.753712237583
aF15000.0
aF26493.039964077234
aF4027.03868833597
aF21063.189568706122
aF5104.273005687618
aF22879.464285714283
asS'k__Bacteria.p__Proteobacteria.c__Deltaproteobacteria.o__Desulfovibrionales.f__Desulfovibrionaceae.g__Bilophila'
p831
(lp832
F0.0
aF0.0
aF0.0
aF0.0
aF2262.4434389140274
aF4059.3286494925837
aF1225.1899044351876
aF7259.528130671504
aF0.0
aF0.0
aF0.0
aF0.0
aF0.0
aF0.0
aF0.0
aF0.0
aF0.0
aF0.0
aF0.0
aF0.0
aF0.0
aF0.0
aF0.0
aF0.0
aF0.0
asS'k__Bacteria.p__Actinobacteria.c__Actinobacteria.o__Actinomycetales.f__Nocardioidaceae.g__Marmoricola'
p833
(lp834
F0.0
aF0.0
aF0.0
aF0.0
aF0.0
aF0.0
aF0.0
aF0.0
aF0.0
aF5061.68933881683
aF0.0
aF0.0
aF0.0
aF0.0
aF0.0
aF0.0
aF0.0
aF0.0
aF0.0
aF0.0
aF0.0
aF0.0
aF0.0
aF0.0
aF0.0
asS'k__Bacteria.p__Proteobacteria.c__Betaproteobacteria.o__Neisseriales.f__Neisseriaceae.g__Kingella'
p835
(lp836
F0.0
aF0.0
aF0.0
aF0.0
aF0.0
aF0.0
aF0.0
aF0.0
aF10982.11484154377
aF1898.1335020563115
aF0.0
aF0.0
aF3179.261433113231
aF0.0
aF0.0
aF0.0
aF0.0
aF0.0
aF0.0
aF0.0
aF0.0
aF0.0
aF0.0
aF0.0
aF0.0
asS'k__Bacteria.p__Firmicutes.c__Clostridia.o__Clostridiales.f___Tissierellaceae_.g__WAL_1855D'
p837
(lp838
F0.0
aF0.0
aF0.0
aF770.4160246533128
aF0.0
aF0.0
aF0.0
aF0.0
aF0.0
aF949.0667510281557
aF455.99635202918364
aF3051.881993896236
aF0.0
aF0.0
aF0.0
aF0.0
aF0.0
aF0.0
aF0.0
aF0.0
aF0.0
aF0.0
aF0.0
aF0.0
aF0.0
asS'k__Bacteria.p__Bacteroidetes.c__Bacteroidia.o__Bacteroidales.f__Porphyromonadaceae.g__Tannerella'
p839
(lp840
F0.0
aF0.0
aF0.0
aF0.0
aF0.0
aF0.0
aF0.0
aF0.0
aF0.0
aF0.0
aF0.0
aF1017.293997965412
aF6113.96429444852
aF0.0
aF0.0
aF0.0
aF0.0
aF0.0
aF0.0
aF0.0
aF0.0
aF0.0
aF334.3363423604146
aF1020.8546011375238
aF0.0
asS'k__Bacteria.p__Proteobacteria.c__Alphaproteobacteria.o__Rhodobacterales'
p841
(lp842
F0.0
aF0.0
aF0.0
aF0.0
aF0.0
aF0.0
aF0.0
aF0.0
aF5647.944775651082
aF1265.4223347042075
aF3419.9726402188776
aF4323.499491353002
aF0.0
aF0.0
aF11275.54615926709
aF0.0
aF0.0
aF0.0
aF0.0
aF0.0
aF0.0
aF0.0
aF0.0
aF0.0
aF0.0
asS'k__Bacteria.p__Bacteroidetes.c__Bacteroidia.o__Bacteroidales.f__S24_7.f__S24_7_g__L6'
p843
(lp844
F0.0
aF0.0
aF0.0
aF0.0
aF0.0
aF0.0
aF0.0
aF0.0
aF0.0
aF0.0
aF0.0
aF1271.617497456765
aF0.0
aF0.0
aF0.0
aF0.0
aF0.0
aF0.0
aF0.0
aF0.0
aF0.0
aF0.0
aF0.0
aF0.0
aF0.0
asS'k__Bacteria.p__Bacteroidetes.c__Bacteroidia.o__Bacteroidales.f__S24_7'
p845
(lp846
F0.0
aF0.0
aF0.0
aF0.0
aF0.0
aF0.0
aF0.0
aF0.0
aF0.0
aF0.0
aF0.0
aF1271.617497456765
aF0.0
aF0.0
aF0.0
aF0.0
aF0.0
aF0.0
aF0.0
aF0.0
aF0.0
aF0.0
aF0.0
aF0.0
aF0.0
asS'k__Bacteria.p__Firmicutes.c__Bacilli.o__Lactobacillales.f__Enterococcaceae.g__Enterococcus'
p847
(lp848
F0.0
aF0.0
aF0.0
aF0.0
aF0.0
aF0.0
aF0.0
aF0.0
aF8158.142453718228
aF0.0
aF0.0
aF0.0
aF0.0
aF0.0
aF0.0
aF0.0
aF0.0
aF0.0
aF0.0
aF0.0
aF0.0
aF0.0
aF0.0
aF0.0
aF0.0
asS'k__Bacteria.p__Proteobacteria.c__Gammaproteobacteria.o__Enterobacteriales'
p849
(lp850
F34815.972715645876
aF23885.14801168847
aF0.0
aF4879.301489470981
aF754.1478129713424
aF0.0
aF735.1139426611124
aF8376.378612313274
aF9727.016002510196
aF4745.3337551407785
aF12539.899680802551
aF3560.528992878942
aF0.0
aF0.0
aF0.0
aF0.0
aF0.0
aF0.0
aF0.0
aF0.0
aF0.0
aF0.0
aF0.0
aF0.0
aF0.0
asS'k__Bacteria.p__Proteobacteria.c__Alphaproteobacteria.o__Caulobacterales'
p851
(lp852
F0.0
aF0.0
aF0.0
aF0.0
aF0.0
aF0.0
aF0.0
aF0.0
aF5961.719485409475
aF3163.555836760519
aF2735.978112175102
aF5849.440488301119
aF0.0
aF0.0
aF2818.8865398167727
aF0.0
aF0.0
aF0.0
aF0.0
aF0.0
aF0.0
aF0.0
aF0.0
aF0.0
aF0.0
asS'k__Bacteria.p__Verrucomicrobia.c___Pedosphaerae_'
p853
(lp854
F0.0
aF0.0
aF0.0
aF0.0
aF0.0
aF0.0
aF0.0
aF0.0
aF0.0
aF0.0
aF0.0
aF0.0
aF0.0
aF0.0
aF1409.4432699083864
aF0.0
aF0.0
aF0.0
aF0.0
aF0.0
aF0.0
aF0.0
aF0.0
aF0.0
aF0.0
asS'k__Bacteria.p__Proteobacteria.c__Epsilonproteobacteria'
p855
(lp856
F0.0
aF0.0
aF0.0
aF0.0
aF0.0
aF0.0
aF0.0
aF0.0
aF3137.7470975839337
aF0.0
aF911.9927040583673
aF1017.293997965412
aF16629.982880899977
aF3371.2600084281503
aF2114.1649048625795
aF6718.03991306066
aF7128.712871287129
aF17992.424242424244
aF10752.688172043012
aF4444.444444444444
aF4490.34575662326
aF15389.040701855314
aF5182.213306586426
aF10646.055126148462
aF3906.25
asS'k__Bacteria.p__Actinobacteria.c__Actinobacteria.o__Actinomycetales'
p857
(lp858
F0.0
aF0.0
aF0.0
aF0.0
aF0.0
aF0.0
aF0.0
aF977.2441714365488
aF80012.55098839031
aF44606.13729832332
aF337209.3023255813
aF303407.9348931841
aF89508.43727072634
aF166034.5554150864
aF140239.6053558844
aF46235.921754593954
aF17425.742574257427
aF50662.878787878784
aF41986.68714797747
aF35555.555555555555
aF92501.12258643915
aF7478.7861354810875
aF43129.38816449348
aF29167.274318214964
aF58035.71428571429
asS'k__Bacteria.p__Bacteroidetes.c__Flavobacteriia.o__Flavobacteriales.f__Flavobacteriaceae.f__Flavobacteriaceae_g__L6'
p859
(lp860
F0.0
aF0.0
aF0.0
aF0.0
aF0.0
aF0.0
aF0.0
aF0.0
aF8785.691873235015
aF0.0
aF0.0
aF0.0
aF0.0
aF2528.445006321113
aF0.0
aF0.0
aF0.0
aF0.0
aF0.0
aF0.0
aF0.0
aF0.0
aF0.0
aF0.0
aF0.0
asS'k__Bacteria.p__Bacteroidetes.c__Flavobacteriia.o__Flavobacteriales.f__Flavobacteriaceae.f__Flavobacteriaceae_x__L6'
p861
(lp862
F0.0
aF0.0
aF0.0
aF0.0
aF0.0
aF0.0
aF0.0
aF0.0
aF11609.664261060556
aF0.0
aF0.0
aF0.0
aF0.0
aF0.0
aF0.0
aF0.0
aF0.0
aF0.0
aF0.0
aF0.0
aF0.0
aF0.0
aF0.0
aF0.0
aF0.0
asS'k__Bacteria.p__Proteobacteria.p__Proteobacteria_x__L3'
p863
(lp864
F0.0
aF0.0
aF0.0
aF0.0
aF0.0
aF0.0
aF0.0
aF0.0
aF941.3241292751802
aF0.0
aF0.0
aF0.0
aF0.0
aF0.0
aF0.0
aF0.0
aF0.0
aF0.0
aF0.0
aF0.0
aF0.0
aF0.0
aF0.0
aF0.0
aF0.0
asS'k__Bacteria.p__Proteobacteria.c__Gammaproteobacteria.o__Legionellales'
p865
(lp866
F0.0
aF0.0
aF0.0
aF0.0
aF0.0
aF0.0
aF0.0
aF0.0
aF0.0
aF632.7111673521038
aF0.0
aF0.0
aF0.0
aF0.0
aF0.0
aF0.0
aF0.0
aF0.0
aF0.0
aF0.0
aF0.0
aF0.0
aF0.0
aF0.0
aF0.0
asS'k__Bacteria.p__Bacteroidetes.c___Saprospirae_.o___Saprospirales_.f__Chitinophagaceae.f__Chitinophagaceae_x__L6'
p867
(lp868
F0.0
aF0.0
aF0.0
aF0.0
aF0.0
aF0.0
aF0.0
aF0.0
aF0.0
aF0.0
aF0.0
aF2797.558494404883
aF0.0
aF0.0
aF0.0
aF0.0
aF0.0
aF0.0
aF0.0
aF0.0
aF0.0
aF0.0
aF0.0
aF0.0
aF0.0
asS'k__Bacteria.p__Proteobacteria.c__Alphaproteobacteria.o__Rhodospirillales.f__Rhodospirillaceae.f__Rhodospirillaceae_x__L6'
p869
(lp870
F0.0
aF0.0
aF0.0
aF0.0
aF0.0
aF0.0
aF0.0
aF0.0
aF0.0
aF949.0667510281557
aF0.0
aF0.0
aF0.0
aF0.0
aF0.0
aF0.0
aF0.0
aF0.0
aF0.0
aF0.0
aF0.0
aF0.0
aF0.0
aF0.0
aF0.0
asS'k__Bacteria.p__Firmicutes.c__Bacilli.o__Lactobacillales.f__Aerococcaceae.g__Alloiococcus'
p871
(lp872
F0.0
aF0.0
aF0.0
aF0.0
aF0.0
aF0.0
aF0.0
aF0.0
aF0.0
aF0.0
aF0.0
aF0.0
aF0.0
aF26127.265065318163
aF2114.1649048625795
aF0.0
aF0.0
aF0.0
aF0.0
aF0.0
aF0.0
aF0.0
aF0.0
aF0.0
aF0.0
asS'k__Bacteria.p__TM7'
p873
(lp874
F0.0
aF0.0
aF0.0
aF0.0
aF0.0
aF0.0
aF0.0
aF0.0
aF0.0
aF0.0
aF0.0
aF0.0
aF0.0
aF0.0
aF0.0
aF0.0
aF0.0
aF0.0
aF0.0
aF0.0
aF0.0
aF287.64562059542646
aF0.0
aF0.0
aF0.0
asS'k__Bacteria.p__Proteobacteria.c__Betaproteobacteria.o__Burkholderiales.f__Oxalobacteraceae.g__Oxalobacter'
p875
(lp876
F0.0
aF0.0
aF0.0
aF0.0
aF0.0
aF0.0
aF612.5949522175938
aF0.0
aF0.0
aF0.0
aF0.0
aF0.0
aF0.0
aF0.0
aF0.0
aF0.0
aF0.0
aF0.0
aF0.0
aF0.0
aF0.0
aF0.0
aF0.0
aF0.0
aF0.0
assS'subclass_sl'
p877
(dp878
g16
(I0
I8
tp879
sg14
(I8
I16
tp880
sg12
(I16
I25
tp881
ssS'norm'
p882
F1000000.0
sS'cls'
p883
(dp884
S'class'
p885
(S'gut'
p886
S'gut'
p887
S'gut'
p888
S'gut'
p889
S'gut'
p890
S'gut'
p891
S'gut'
p892
g7
S'left_palm'
p893
S'left_palm'
p894
S'left_palm'
p895
S'left_palm'
p896
S'left_palm'
p897
S'left_palm'
p898
S'left_palm'
p899
g5
S'tongue'
p900
S'tongue'
p901
S'tongue'
p902
S'tongue'
p903
S'tongue'
p904
S'tongue'
p905
S'tongue'
p906
S'tongue'
p907
g3
tp908
sS'subclass'
p909
(lp910
S'gut_subcl'
p911
aS'gut_subcl'
p912
aS'gut_subcl'
p913
aS'gut_subcl'
p914
aS'gut_subcl'
p915
aS'gut_subcl'
p916
aS'gut_subcl'
p917
ag16
aS'left_palm_subcl'
p918
aS'left_palm_subcl'
p919
aS'left_palm_subcl'
p920
aS'left_palm_subcl'
p921
aS'left_palm_subcl'
p922
aS'left_palm_subcl'
p923
aS'left_palm_subcl'
p924
ag14
aS'tongue_subcl'
p925
aS'tongue_subcl'
p926
aS'tongue_subcl'
p927
aS'tongue_subcl'
p928
aS'tongue_subcl'
p929
aS'tongue_subcl'
p930
aS'tongue_subcl'
p931
aS'tongue_subcl'
p932
ag12
asS'subject'
p933
(S'subject-1'
p934
S'subject-1'
p935
S'subject-1'
p936
S'subject-1'
p937
S'subject-2'
p938
S'subject-2'
p939
S'subject-2'
p940
S'subject-2'
p941
S'subject-1'
p942
S'subject-1'
p943
S'subject-1'
p944
S'subject-1'
p945
S'subject-2'
p946
S'subject-2'
p947
S'subject-2'
p948
S'subject-2'
p949
S'subject-1'
p950
S'subject-1'
p951
S'subject-1'
p952
S'subject-1'
p953
S'subject-1'
p954
S'subject-2'
p955
S'subject-2'
p956
S'subject-2'
p957
S'subject-2'
p958
tp959
ss.